
USBMediaController.elf:     file format elf32-avr

Sections:
Idx Name          Size      VMA       LMA       File off  Algn
  0 .text         0000371c  00000000  00000000  00000094  2**1
                  CONTENTS, ALLOC, LOAD, READONLY, CODE
  1 .data         00000214  00800060  0000371c  000037b0  2**0
                  CONTENTS, ALLOC, LOAD, DATA
  2 .bss          00000030  00800274  00800274  000039c4  2**0
                  ALLOC
  3 .comment      00000030  00000000  00000000  000039c4  2**0
                  CONTENTS, READONLY

Disassembly of section .text:

00000000 <__vectors>:
       0:	0c 94 2a 00 	jmp	0x54	; 0x54 <__ctors_end>
       4:	0c 94 47 00 	jmp	0x8e	; 0x8e <__bad_interrupt>
       8:	0c 94 47 00 	jmp	0x8e	; 0x8e <__bad_interrupt>
       c:	0c 94 47 00 	jmp	0x8e	; 0x8e <__bad_interrupt>
      10:	0c 94 47 00 	jmp	0x8e	; 0x8e <__bad_interrupt>
      14:	0c 94 47 00 	jmp	0x8e	; 0x8e <__bad_interrupt>
      18:	0c 94 47 00 	jmp	0x8e	; 0x8e <__bad_interrupt>
      1c:	0c 94 47 00 	jmp	0x8e	; 0x8e <__bad_interrupt>
      20:	0c 94 47 00 	jmp	0x8e	; 0x8e <__bad_interrupt>
      24:	0c 94 47 00 	jmp	0x8e	; 0x8e <__bad_interrupt>
      28:	0c 94 47 00 	jmp	0x8e	; 0x8e <__bad_interrupt>
      2c:	0c 94 47 00 	jmp	0x8e	; 0x8e <__bad_interrupt>
      30:	0c 94 47 00 	jmp	0x8e	; 0x8e <__bad_interrupt>
      34:	0c 94 47 00 	jmp	0x8e	; 0x8e <__bad_interrupt>
      38:	0c 94 47 00 	jmp	0x8e	; 0x8e <__bad_interrupt>
      3c:	0c 94 47 00 	jmp	0x8e	; 0x8e <__bad_interrupt>
      40:	0c 94 47 00 	jmp	0x8e	; 0x8e <__bad_interrupt>
      44:	0c 94 47 00 	jmp	0x8e	; 0x8e <__bad_interrupt>
      48:	0c 94 47 00 	jmp	0x8e	; 0x8e <__bad_interrupt>
      4c:	0c 94 47 00 	jmp	0x8e	; 0x8e <__bad_interrupt>
      50:	0c 94 47 00 	jmp	0x8e	; 0x8e <__bad_interrupt>

00000054 <__ctors_end>:
      54:	11 24       	eor	r1, r1
      56:	1f be       	out	0x3f, r1	; 63
      58:	cf e5       	ldi	r28, 0x5F	; 95
      5a:	d8 e0       	ldi	r29, 0x08	; 8
      5c:	de bf       	out	0x3e, r29	; 62
      5e:	cd bf       	out	0x3d, r28	; 61

00000060 <__do_copy_data>:
      60:	12 e0       	ldi	r17, 0x02	; 2
      62:	a0 e6       	ldi	r26, 0x60	; 96
      64:	b0 e0       	ldi	r27, 0x00	; 0
      66:	ec e1       	ldi	r30, 0x1C	; 28
      68:	f7 e3       	ldi	r31, 0x37	; 55
      6a:	02 c0       	rjmp	.+4      	; 0x70 <__do_copy_data+0x10>
      6c:	05 90       	lpm	r0, Z+
      6e:	0d 92       	st	X+, r0
      70:	a4 37       	cpi	r26, 0x74	; 116
      72:	b1 07       	cpc	r27, r17
      74:	d9 f7       	brne	.-10     	; 0x6c <__do_copy_data+0xc>

00000076 <__do_clear_bss>:
      76:	22 e0       	ldi	r18, 0x02	; 2
      78:	a4 e7       	ldi	r26, 0x74	; 116
      7a:	b2 e0       	ldi	r27, 0x02	; 2
      7c:	01 c0       	rjmp	.+2      	; 0x80 <.do_clear_bss_start>

0000007e <.do_clear_bss_loop>:
      7e:	1d 92       	st	X+, r1

00000080 <.do_clear_bss_start>:
      80:	a4 3a       	cpi	r26, 0xA4	; 164
      82:	b2 07       	cpc	r27, r18
      84:	e1 f7       	brne	.-8      	; 0x7e <.do_clear_bss_loop>
      86:	0e 94 67 0d 	call	0x1ace	; 0x1ace <main>
      8a:	0c 94 8c 1b 	jmp	0x3718	; 0x3718 <_exit>

0000008e <__bad_interrupt>:
      8e:	0c 94 00 00 	jmp	0	; 0x0 <__vectors>

00000092 <DEVCOMMAND_LedInfoBlink>:
      92:	66 23       	and	r22, r22
      94:	41 f0       	breq	.+16     	; 0xa6 <DEVCOMMAND_LedInfoBlink+0x14>
      96:	84 e6       	ldi	r24, 0x64	; 100
      98:	90 e0       	ldi	r25, 0x00	; 0
      9a:	0e 94 81 06 	call	0xd02	; 0xd02 <LedControl_ON>
      9e:	84 e6       	ldi	r24, 0x64	; 100
      a0:	90 e0       	ldi	r25, 0x00	; 0
      a2:	0c 94 9b 06 	jmp	0xd36	; 0xd36 <LedControl_OFF>
      a6:	88 ec       	ldi	r24, 0xC8	; 200
      a8:	90 e0       	ldi	r25, 0x00	; 0
      aa:	0c 94 97 0d 	jmp	0x1b2e	; 0x1b2e <DELAY_ms>

000000ae <DEVCOMMAND_ExecuteCommand>:
      ae:	cf 93       	push	r28
      b0:	fb 01       	movw	r30, r22
      b2:	c4 2f       	mov	r28, r20
      b4:	b9 01       	movw	r22, r18
      b6:	81 30       	cpi	r24, 0x01	; 1
      b8:	91 05       	cpc	r25, r1
      ba:	f1 f4       	brne	.+60     	; 0xf8 <DEVCOMMAND_ExecuteCommand+0x4a>
      bc:	e1 30       	cpi	r30, 0x01	; 1
      be:	f1 05       	cpc	r31, r1
      c0:	19 f4       	brne	.+6      	; 0xc8 <DEVCOMMAND_ExecuteCommand+0x1a>
      c2:	8c ea       	ldi	r24, 0xAC	; 172
      c4:	90 e0       	ldi	r25, 0x00	; 0
      c6:	10 c0       	rjmp	.+32     	; 0xe8 <DEVCOMMAND_ExecuteCommand+0x3a>
      c8:	e2 30       	cpi	r30, 0x02	; 2
      ca:	f1 05       	cpc	r31, r1
      cc:	19 f4       	brne	.+6      	; 0xd4 <DEVCOMMAND_ExecuteCommand+0x26>
      ce:	82 eb       	ldi	r24, 0xB2	; 178
      d0:	90 e0       	ldi	r25, 0x00	; 0
      d2:	0a c0       	rjmp	.+20     	; 0xe8 <DEVCOMMAND_ExecuteCommand+0x3a>
      d4:	e3 30       	cpi	r30, 0x03	; 3
      d6:	f1 05       	cpc	r31, r1
      d8:	19 f4       	brne	.+6      	; 0xe0 <DEVCOMMAND_ExecuteCommand+0x32>
      da:	88 eb       	ldi	r24, 0xB8	; 184
      dc:	90 e0       	ldi	r25, 0x00	; 0
      de:	04 c0       	rjmp	.+8      	; 0xe8 <DEVCOMMAND_ExecuteCommand+0x3a>
      e0:	34 97       	sbiw	r30, 0x04	; 4
      e2:	21 f4       	brne	.+8      	; 0xec <DEVCOMMAND_ExecuteCommand+0x3e>
      e4:	8e eb       	ldi	r24, 0xBE	; 190
      e6:	90 e0       	ldi	r25, 0x00	; 0
      e8:	0e 94 ec 0a 	call	0x15d8	; 0x15d8 <UARTCOMMUNICATION_send>
      ec:	6c 2f       	mov	r22, r28
      ee:	84 e6       	ldi	r24, 0x64	; 100
      f0:	90 e0       	ldi	r25, 0x00	; 0
      f2:	cf 91       	pop	r28
      f4:	0c 94 49 00 	jmp	0x92	; 0x92 <DEVCOMMAND_LedInfoBlink>
      f8:	82 30       	cpi	r24, 0x02	; 2
      fa:	91 05       	cpc	r25, r1
      fc:	b9 f4       	brne	.+46     	; 0x12c <DEVCOMMAND_ExecuteCommand+0x7e>
      fe:	e1 30       	cpi	r30, 0x01	; 1
     100:	f1 05       	cpc	r31, r1
     102:	19 f4       	brne	.+6      	; 0x10a <DEVCOMMAND_ExecuteCommand+0x5c>
     104:	84 ec       	ldi	r24, 0xC4	; 196
     106:	90 e0       	ldi	r25, 0x00	; 0
     108:	ef cf       	rjmp	.-34     	; 0xe8 <DEVCOMMAND_ExecuteCommand+0x3a>
     10a:	e2 30       	cpi	r30, 0x02	; 2
     10c:	f1 05       	cpc	r31, r1
     10e:	19 f4       	brne	.+6      	; 0x116 <DEVCOMMAND_ExecuteCommand+0x68>
     110:	8a ec       	ldi	r24, 0xCA	; 202
     112:	90 e0       	ldi	r25, 0x00	; 0
     114:	e9 cf       	rjmp	.-46     	; 0xe8 <DEVCOMMAND_ExecuteCommand+0x3a>
     116:	e3 30       	cpi	r30, 0x03	; 3
     118:	f1 05       	cpc	r31, r1
     11a:	19 f4       	brne	.+6      	; 0x122 <DEVCOMMAND_ExecuteCommand+0x74>
     11c:	80 ed       	ldi	r24, 0xD0	; 208
     11e:	90 e0       	ldi	r25, 0x00	; 0
     120:	e3 cf       	rjmp	.-58     	; 0xe8 <DEVCOMMAND_ExecuteCommand+0x3a>
     122:	34 97       	sbiw	r30, 0x04	; 4
     124:	19 f7       	brne	.-58     	; 0xec <DEVCOMMAND_ExecuteCommand+0x3e>
     126:	86 ed       	ldi	r24, 0xD6	; 214
     128:	90 e0       	ldi	r25, 0x00	; 0
     12a:	de cf       	rjmp	.-68     	; 0xe8 <DEVCOMMAND_ExecuteCommand+0x3a>
     12c:	83 30       	cpi	r24, 0x03	; 3
     12e:	91 05       	cpc	r25, r1
     130:	b9 f4       	brne	.+46     	; 0x160 <DEVCOMMAND_ExecuteCommand+0xb2>
     132:	e1 30       	cpi	r30, 0x01	; 1
     134:	f1 05       	cpc	r31, r1
     136:	19 f4       	brne	.+6      	; 0x13e <DEVCOMMAND_ExecuteCommand+0x90>
     138:	8c ed       	ldi	r24, 0xDC	; 220
     13a:	90 e0       	ldi	r25, 0x00	; 0
     13c:	d5 cf       	rjmp	.-86     	; 0xe8 <DEVCOMMAND_ExecuteCommand+0x3a>
     13e:	e2 30       	cpi	r30, 0x02	; 2
     140:	f1 05       	cpc	r31, r1
     142:	19 f4       	brne	.+6      	; 0x14a <DEVCOMMAND_ExecuteCommand+0x9c>
     144:	82 ee       	ldi	r24, 0xE2	; 226
     146:	90 e0       	ldi	r25, 0x00	; 0
     148:	cf cf       	rjmp	.-98     	; 0xe8 <DEVCOMMAND_ExecuteCommand+0x3a>
     14a:	e3 30       	cpi	r30, 0x03	; 3
     14c:	f1 05       	cpc	r31, r1
     14e:	19 f4       	brne	.+6      	; 0x156 <DEVCOMMAND_ExecuteCommand+0xa8>
     150:	88 ee       	ldi	r24, 0xE8	; 232
     152:	90 e0       	ldi	r25, 0x00	; 0
     154:	c9 cf       	rjmp	.-110    	; 0xe8 <DEVCOMMAND_ExecuteCommand+0x3a>
     156:	34 97       	sbiw	r30, 0x04	; 4
     158:	49 f6       	brne	.-110    	; 0xec <DEVCOMMAND_ExecuteCommand+0x3e>
     15a:	8e ee       	ldi	r24, 0xEE	; 238
     15c:	90 e0       	ldi	r25, 0x00	; 0
     15e:	c4 cf       	rjmp	.-120    	; 0xe8 <DEVCOMMAND_ExecuteCommand+0x3a>
     160:	04 97       	sbiw	r24, 0x04	; 4
     162:	c1 f4       	brne	.+48     	; 0x194 <DEVCOMMAND_ExecuteCommand+0xe6>
     164:	e1 30       	cpi	r30, 0x01	; 1
     166:	f1 05       	cpc	r31, r1
     168:	19 f4       	brne	.+6      	; 0x170 <DEVCOMMAND_ExecuteCommand+0xc2>
     16a:	84 ef       	ldi	r24, 0xF4	; 244
     16c:	90 e0       	ldi	r25, 0x00	; 0
     16e:	bc cf       	rjmp	.-136    	; 0xe8 <DEVCOMMAND_ExecuteCommand+0x3a>
     170:	e2 30       	cpi	r30, 0x02	; 2
     172:	f1 05       	cpc	r31, r1
     174:	19 f4       	brne	.+6      	; 0x17c <DEVCOMMAND_ExecuteCommand+0xce>
     176:	8a ef       	ldi	r24, 0xFA	; 250
     178:	90 e0       	ldi	r25, 0x00	; 0
     17a:	b6 cf       	rjmp	.-148    	; 0xe8 <DEVCOMMAND_ExecuteCommand+0x3a>
     17c:	e3 30       	cpi	r30, 0x03	; 3
     17e:	f1 05       	cpc	r31, r1
     180:	19 f4       	brne	.+6      	; 0x188 <DEVCOMMAND_ExecuteCommand+0xda>
     182:	80 e0       	ldi	r24, 0x00	; 0
     184:	91 e0       	ldi	r25, 0x01	; 1
     186:	b0 cf       	rjmp	.-160    	; 0xe8 <DEVCOMMAND_ExecuteCommand+0x3a>
     188:	34 97       	sbiw	r30, 0x04	; 4
     18a:	09 f0       	breq	.+2      	; 0x18e <DEVCOMMAND_ExecuteCommand+0xe0>
     18c:	af cf       	rjmp	.-162    	; 0xec <DEVCOMMAND_ExecuteCommand+0x3e>
     18e:	86 e0       	ldi	r24, 0x06	; 6
     190:	91 e0       	ldi	r25, 0x01	; 1
     192:	aa cf       	rjmp	.-172    	; 0xe8 <DEVCOMMAND_ExecuteCommand+0x3a>
     194:	cf 91       	pop	r28
     196:	08 95       	ret

00000198 <LCDEXPLOITING_SetLctBrightness>:
     198:	85 36       	cpi	r24, 0x65	; 101
     19a:	91 05       	cpc	r25, r1
     19c:	38 f4       	brcc	.+14     	; 0x1ac <LCDEXPLOITING_SetLctBrightness+0x14>
     19e:	64 e6       	ldi	r22, 0x64	; 100
     1a0:	70 e0       	ldi	r23, 0x00	; 0
     1a2:	68 1b       	sub	r22, r24
     1a4:	79 0b       	sbc	r23, r25
     1a6:	81 e0       	ldi	r24, 0x01	; 1
     1a8:	0c 94 ba 06 	jmp	0xd74	; 0xd74 <PWM_SetDutyCycle>
     1ac:	08 95       	ret

000001ae <LCDEXPLOITING_howLong>:
     1ae:	fc 01       	movw	r30, r24
     1b0:	20 e0       	ldi	r18, 0x00	; 0
     1b2:	30 e0       	ldi	r19, 0x00	; 0
     1b4:	af 01       	movw	r20, r30
     1b6:	48 1b       	sub	r20, r24
     1b8:	59 0b       	sbc	r21, r25
     1ba:	61 91       	ld	r22, Z+
     1bc:	66 23       	and	r22, r22
     1be:	29 f0       	breq	.+10     	; 0x1ca <LCDEXPLOITING_howLong+0x1c>
     1c0:	65 32       	cpi	r22, 0x25	; 37
     1c2:	c1 f7       	brne	.-16     	; 0x1b4 <LCDEXPLOITING_howLong+0x6>
     1c4:	2f 5f       	subi	r18, 0xFF	; 255
     1c6:	3f 4f       	sbci	r19, 0xFF	; 255
     1c8:	f5 cf       	rjmp	.-22     	; 0x1b4 <LCDEXPLOITING_howLong+0x6>
     1ca:	c9 01       	movw	r24, r18
     1cc:	84 1b       	sub	r24, r20
     1ce:	95 0b       	sbc	r25, r21
     1d0:	07 96       	adiw	r24, 0x07	; 7
     1d2:	08 95       	ret

000001d4 <LCDEXPLOITING_showPage>:
     1d4:	ef 92       	push	r14
     1d6:	ff 92       	push	r15
     1d8:	0f 93       	push	r16
     1da:	1f 93       	push	r17
     1dc:	cf 93       	push	r28
     1de:	df 93       	push	r29
     1e0:	8c 01       	movw	r16, r24
     1e2:	eb 01       	movw	r28, r22
     1e4:	0e 94 fc 0f 	call	0x1ff8	; 0x1ff8 <LCD_Clear>
     1e8:	01 30       	cpi	r16, 0x01	; 1
     1ea:	11 05       	cpc	r17, r1
     1ec:	09 f0       	breq	.+2      	; 0x1f0 <LCDEXPLOITING_showPage+0x1c>
     1ee:	44 c0       	rjmp	.+136    	; 0x278 <LCDEXPLOITING_showPage+0xa4>
     1f0:	df 93       	push	r29
     1f2:	cf 93       	push	r28
     1f4:	0f e2       	ldi	r16, 0x2F	; 47
     1f6:	11 e0       	ldi	r17, 0x01	; 1
     1f8:	1f 93       	push	r17
     1fa:	0f 93       	push	r16
     1fc:	1f 92       	push	r1
     1fe:	1f 92       	push	r1
     200:	1f 92       	push	r1
     202:	1f 92       	push	r1
     204:	0e 94 dc 13 	call	0x27b8	; 0x27b8 <LCD_XYPrintf>
     208:	7e 01       	movw	r14, r28
     20a:	99 e0       	ldi	r25, 0x09	; 9
     20c:	e9 0e       	add	r14, r25
     20e:	f1 1c       	adc	r15, r1
     210:	c7 01       	movw	r24, r14
     212:	0e 94 d7 00 	call	0x1ae	; 0x1ae <LCDEXPLOITING_howLong>
     216:	ff 92       	push	r15
     218:	ef 92       	push	r14
     21a:	1f 93       	push	r17
     21c:	0f 93       	push	r16
     21e:	1f 92       	push	r1
     220:	1f 92       	push	r1
     222:	09 96       	adiw	r24, 0x09	; 9
     224:	9f 93       	push	r25
     226:	8f 93       	push	r24
     228:	0e 94 dc 13 	call	0x27b8	; 0x27b8 <LCD_XYPrintf>
     22c:	ce 01       	movw	r24, r28
     22e:	42 96       	adiw	r24, 0x12	; 18
     230:	9f 93       	push	r25
     232:	8f 93       	push	r24
     234:	1f 93       	push	r17
     236:	0f 93       	push	r16
     238:	1f 92       	push	r1
     23a:	ff 24       	eor	r15, r15
     23c:	f3 94       	inc	r15
     23e:	ff 92       	push	r15
     240:	1f 92       	push	r1
     242:	1f 92       	push	r1
     244:	0e 94 dc 13 	call	0x27b8	; 0x27b8 <LCD_XYPrintf>
     248:	6b 96       	adiw	r28, 0x1b	; 27
     24a:	ce 01       	movw	r24, r28
     24c:	0e 94 d7 00 	call	0x1ae	; 0x1ae <LCDEXPLOITING_howLong>
     250:	df 93       	push	r29
     252:	cf 93       	push	r28
     254:	1f 93       	push	r17
     256:	0f 93       	push	r16
     258:	1f 92       	push	r1
     25a:	ff 92       	push	r15
     25c:	09 96       	adiw	r24, 0x09	; 9
     25e:	9f 93       	push	r25
     260:	8f 93       	push	r24
     262:	0e 94 dc 13 	call	0x27b8	; 0x27b8 <LCD_XYPrintf>
     266:	8d b7       	in	r24, 0x3d	; 61
     268:	9e b7       	in	r25, 0x3e	; 62
     26a:	80 96       	adiw	r24, 0x20	; 32
     26c:	0f b6       	in	r0, 0x3f	; 63
     26e:	f8 94       	cli
     270:	9e bf       	out	0x3e, r25	; 62
     272:	0f be       	out	0x3f, r0	; 63
     274:	8d bf       	out	0x3d, r24	; 61
     276:	e3 c0       	rjmp	.+454    	; 0x43e <LCDEXPLOITING_showPage+0x26a>
     278:	02 30       	cpi	r16, 0x02	; 2
     27a:	11 05       	cpc	r17, r1
     27c:	09 f0       	breq	.+2      	; 0x280 <LCDEXPLOITING_showPage+0xac>
     27e:	46 c0       	rjmp	.+140    	; 0x30c <LCDEXPLOITING_showPage+0x138>
     280:	ce 01       	movw	r24, r28
     282:	84 96       	adiw	r24, 0x24	; 36
     284:	9f 93       	push	r25
     286:	8f 93       	push	r24
     288:	0f e2       	ldi	r16, 0x2F	; 47
     28a:	11 e0       	ldi	r17, 0x01	; 1
     28c:	1f 93       	push	r17
     28e:	0f 93       	push	r16
     290:	1f 92       	push	r1
     292:	1f 92       	push	r1
     294:	1f 92       	push	r1
     296:	1f 92       	push	r1
     298:	0e 94 dc 13 	call	0x27b8	; 0x27b8 <LCD_XYPrintf>
     29c:	7e 01       	movw	r14, r28
     29e:	9d e2       	ldi	r25, 0x2D	; 45
     2a0:	e9 0e       	add	r14, r25
     2a2:	f1 1c       	adc	r15, r1
     2a4:	c7 01       	movw	r24, r14
     2a6:	0e 94 d7 00 	call	0x1ae	; 0x1ae <LCDEXPLOITING_howLong>
     2aa:	ff 92       	push	r15
     2ac:	ef 92       	push	r14
     2ae:	1f 93       	push	r17
     2b0:	0f 93       	push	r16
     2b2:	1f 92       	push	r1
     2b4:	1f 92       	push	r1
     2b6:	09 96       	adiw	r24, 0x09	; 9
     2b8:	9f 93       	push	r25
     2ba:	8f 93       	push	r24
     2bc:	0e 94 dc 13 	call	0x27b8	; 0x27b8 <LCD_XYPrintf>
     2c0:	ce 01       	movw	r24, r28
     2c2:	c6 96       	adiw	r24, 0x36	; 54
     2c4:	9f 93       	push	r25
     2c6:	8f 93       	push	r24
     2c8:	1f 93       	push	r17
     2ca:	0f 93       	push	r16
     2cc:	1f 92       	push	r1
     2ce:	ff 24       	eor	r15, r15
     2d0:	f3 94       	inc	r15
     2d2:	ff 92       	push	r15
     2d4:	1f 92       	push	r1
     2d6:	1f 92       	push	r1
     2d8:	0e 94 dc 13 	call	0x27b8	; 0x27b8 <LCD_XYPrintf>
     2dc:	ef 96       	adiw	r28, 0x3f	; 63
     2de:	ce 01       	movw	r24, r28
     2e0:	0e 94 d7 00 	call	0x1ae	; 0x1ae <LCDEXPLOITING_howLong>
     2e4:	df 93       	push	r29
     2e6:	cf 93       	push	r28
     2e8:	1f 93       	push	r17
     2ea:	0f 93       	push	r16
     2ec:	1f 92       	push	r1
     2ee:	ff 92       	push	r15
     2f0:	09 96       	adiw	r24, 0x09	; 9
     2f2:	9f 93       	push	r25
     2f4:	8f 93       	push	r24
     2f6:	0e 94 dc 13 	call	0x27b8	; 0x27b8 <LCD_XYPrintf>
     2fa:	8d b7       	in	r24, 0x3d	; 61
     2fc:	9e b7       	in	r25, 0x3e	; 62
     2fe:	80 96       	adiw	r24, 0x20	; 32
     300:	0f b6       	in	r0, 0x3f	; 63
     302:	f8 94       	cli
     304:	9e bf       	out	0x3e, r25	; 62
     306:	0f be       	out	0x3f, r0	; 63
     308:	8d bf       	out	0x3d, r24	; 61
     30a:	99 c0       	rjmp	.+306    	; 0x43e <LCDEXPLOITING_showPage+0x26a>
     30c:	03 30       	cpi	r16, 0x03	; 3
     30e:	11 05       	cpc	r17, r1
     310:	09 f0       	breq	.+2      	; 0x314 <LCDEXPLOITING_showPage+0x140>
     312:	49 c0       	rjmp	.+146    	; 0x3a6 <LCDEXPLOITING_showPage+0x1d2>
     314:	ce 01       	movw	r24, r28
     316:	88 5b       	subi	r24, 0xB8	; 184
     318:	9f 4f       	sbci	r25, 0xFF	; 255
     31a:	9f 93       	push	r25
     31c:	8f 93       	push	r24
     31e:	0f e2       	ldi	r16, 0x2F	; 47
     320:	11 e0       	ldi	r17, 0x01	; 1
     322:	1f 93       	push	r17
     324:	0f 93       	push	r16
     326:	1f 92       	push	r1
     328:	1f 92       	push	r1
     32a:	1f 92       	push	r1
     32c:	1f 92       	push	r1
     32e:	0e 94 dc 13 	call	0x27b8	; 0x27b8 <LCD_XYPrintf>
     332:	7e 01       	movw	r14, r28
     334:	91 e5       	ldi	r25, 0x51	; 81
     336:	e9 0e       	add	r14, r25
     338:	f1 1c       	adc	r15, r1
     33a:	c7 01       	movw	r24, r14
     33c:	0e 94 d7 00 	call	0x1ae	; 0x1ae <LCDEXPLOITING_howLong>
     340:	ff 92       	push	r15
     342:	ef 92       	push	r14
     344:	1f 93       	push	r17
     346:	0f 93       	push	r16
     348:	1f 92       	push	r1
     34a:	1f 92       	push	r1
     34c:	09 96       	adiw	r24, 0x09	; 9
     34e:	9f 93       	push	r25
     350:	8f 93       	push	r24
     352:	0e 94 dc 13 	call	0x27b8	; 0x27b8 <LCD_XYPrintf>
     356:	ce 01       	movw	r24, r28
     358:	86 5a       	subi	r24, 0xA6	; 166
     35a:	9f 4f       	sbci	r25, 0xFF	; 255
     35c:	9f 93       	push	r25
     35e:	8f 93       	push	r24
     360:	1f 93       	push	r17
     362:	0f 93       	push	r16
     364:	1f 92       	push	r1
     366:	ff 24       	eor	r15, r15
     368:	f3 94       	inc	r15
     36a:	ff 92       	push	r15
     36c:	1f 92       	push	r1
     36e:	1f 92       	push	r1
     370:	0e 94 dc 13 	call	0x27b8	; 0x27b8 <LCD_XYPrintf>
     374:	cd 59       	subi	r28, 0x9D	; 157
     376:	df 4f       	sbci	r29, 0xFF	; 255
     378:	ce 01       	movw	r24, r28
     37a:	0e 94 d7 00 	call	0x1ae	; 0x1ae <LCDEXPLOITING_howLong>
     37e:	df 93       	push	r29
     380:	cf 93       	push	r28
     382:	1f 93       	push	r17
     384:	0f 93       	push	r16
     386:	1f 92       	push	r1
     388:	ff 92       	push	r15
     38a:	09 96       	adiw	r24, 0x09	; 9
     38c:	9f 93       	push	r25
     38e:	8f 93       	push	r24
     390:	0e 94 dc 13 	call	0x27b8	; 0x27b8 <LCD_XYPrintf>
     394:	8d b7       	in	r24, 0x3d	; 61
     396:	9e b7       	in	r25, 0x3e	; 62
     398:	80 96       	adiw	r24, 0x20	; 32
     39a:	0f b6       	in	r0, 0x3f	; 63
     39c:	f8 94       	cli
     39e:	9e bf       	out	0x3e, r25	; 62
     3a0:	0f be       	out	0x3f, r0	; 63
     3a2:	8d bf       	out	0x3d, r24	; 61
     3a4:	4c c0       	rjmp	.+152    	; 0x43e <LCDEXPLOITING_showPage+0x26a>
     3a6:	04 30       	cpi	r16, 0x04	; 4
     3a8:	11 05       	cpc	r17, r1
     3aa:	09 f0       	breq	.+2      	; 0x3ae <LCDEXPLOITING_showPage+0x1da>
     3ac:	48 c0       	rjmp	.+144    	; 0x43e <LCDEXPLOITING_showPage+0x26a>
     3ae:	ce 01       	movw	r24, r28
     3b0:	84 59       	subi	r24, 0x94	; 148
     3b2:	9f 4f       	sbci	r25, 0xFF	; 255
     3b4:	9f 93       	push	r25
     3b6:	8f 93       	push	r24
     3b8:	0f e2       	ldi	r16, 0x2F	; 47
     3ba:	11 e0       	ldi	r17, 0x01	; 1
     3bc:	1f 93       	push	r17
     3be:	0f 93       	push	r16
     3c0:	1f 92       	push	r1
     3c2:	1f 92       	push	r1
     3c4:	1f 92       	push	r1
     3c6:	1f 92       	push	r1
     3c8:	0e 94 dc 13 	call	0x27b8	; 0x27b8 <LCD_XYPrintf>
     3cc:	7e 01       	movw	r14, r28
     3ce:	95 e7       	ldi	r25, 0x75	; 117
     3d0:	e9 0e       	add	r14, r25
     3d2:	f1 1c       	adc	r15, r1
     3d4:	c7 01       	movw	r24, r14
     3d6:	0e 94 d7 00 	call	0x1ae	; 0x1ae <LCDEXPLOITING_howLong>
     3da:	ff 92       	push	r15
     3dc:	ef 92       	push	r14
     3de:	1f 93       	push	r17
     3e0:	0f 93       	push	r16
     3e2:	1f 92       	push	r1
     3e4:	1f 92       	push	r1
     3e6:	09 96       	adiw	r24, 0x09	; 9
     3e8:	9f 93       	push	r25
     3ea:	8f 93       	push	r24
     3ec:	0e 94 dc 13 	call	0x27b8	; 0x27b8 <LCD_XYPrintf>
     3f0:	ce 01       	movw	r24, r28
     3f2:	82 58       	subi	r24, 0x82	; 130
     3f4:	9f 4f       	sbci	r25, 0xFF	; 255
     3f6:	9f 93       	push	r25
     3f8:	8f 93       	push	r24
     3fa:	1f 93       	push	r17
     3fc:	0f 93       	push	r16
     3fe:	1f 92       	push	r1
     400:	ff 24       	eor	r15, r15
     402:	f3 94       	inc	r15
     404:	ff 92       	push	r15
     406:	1f 92       	push	r1
     408:	1f 92       	push	r1
     40a:	0e 94 dc 13 	call	0x27b8	; 0x27b8 <LCD_XYPrintf>
     40e:	c9 57       	subi	r28, 0x79	; 121
     410:	df 4f       	sbci	r29, 0xFF	; 255
     412:	ce 01       	movw	r24, r28
     414:	0e 94 d7 00 	call	0x1ae	; 0x1ae <LCDEXPLOITING_howLong>
     418:	df 93       	push	r29
     41a:	cf 93       	push	r28
     41c:	1f 93       	push	r17
     41e:	0f 93       	push	r16
     420:	1f 92       	push	r1
     422:	ff 92       	push	r15
     424:	09 96       	adiw	r24, 0x09	; 9
     426:	9f 93       	push	r25
     428:	8f 93       	push	r24
     42a:	0e 94 dc 13 	call	0x27b8	; 0x27b8 <LCD_XYPrintf>
     42e:	8d b7       	in	r24, 0x3d	; 61
     430:	9e b7       	in	r25, 0x3e	; 62
     432:	80 96       	adiw	r24, 0x20	; 32
     434:	0f b6       	in	r0, 0x3f	; 63
     436:	f8 94       	cli
     438:	9e bf       	out	0x3e, r25	; 62
     43a:	0f be       	out	0x3f, r0	; 63
     43c:	8d bf       	out	0x3d, r24	; 61
     43e:	df 91       	pop	r29
     440:	cf 91       	pop	r28
     442:	1f 91       	pop	r17
     444:	0f 91       	pop	r16
     446:	ff 90       	pop	r15
     448:	ef 90       	pop	r14
     44a:	08 95       	ret

0000044c <LCDEXPLOITING_DrawLoading>:
     44c:	df 92       	push	r13
     44e:	ef 92       	push	r14
     450:	ff 92       	push	r15
     452:	0f 93       	push	r16
     454:	1f 93       	push	r17
     456:	cf 93       	push	r28
     458:	df 93       	push	r29
     45a:	7c 01       	movw	r14, r24
     45c:	c0 e0       	ldi	r28, 0x00	; 0
     45e:	d0 e0       	ldi	r29, 0x00	; 0
     460:	0c e0       	ldi	r16, 0x0C	; 12
     462:	11 e0       	ldi	r17, 0x01	; 1
     464:	dd 24       	eor	r13, r13
     466:	d3 94       	inc	r13
     468:	ce 15       	cp	r28, r14
     46a:	df 05       	cpc	r29, r15
     46c:	84 f4       	brge	.+32     	; 0x48e <LCDEXPLOITING_DrawLoading+0x42>
     46e:	1f 93       	push	r17
     470:	0f 93       	push	r16
     472:	1f 92       	push	r1
     474:	df 92       	push	r13
     476:	df 93       	push	r29
     478:	cf 93       	push	r28
     47a:	0e 94 dc 13 	call	0x27b8	; 0x27b8 <LCD_XYPrintf>
     47e:	21 96       	adiw	r28, 0x01	; 1
     480:	0f 90       	pop	r0
     482:	0f 90       	pop	r0
     484:	0f 90       	pop	r0
     486:	0f 90       	pop	r0
     488:	0f 90       	pop	r0
     48a:	0f 90       	pop	r0
     48c:	ed cf       	rjmp	.-38     	; 0x468 <LCDEXPLOITING_DrawLoading+0x1c>
     48e:	df 91       	pop	r29
     490:	cf 91       	pop	r28
     492:	1f 91       	pop	r17
     494:	0f 91       	pop	r16
     496:	ff 90       	pop	r15
     498:	ef 90       	pop	r14
     49a:	df 90       	pop	r13
     49c:	08 95       	ret

0000049e <screen_show_initialize>:
     49e:	df 92       	push	r13
     4a0:	ef 92       	push	r14
     4a2:	ff 92       	push	r15
     4a4:	0f 93       	push	r16
     4a6:	1f 93       	push	r17
     4a8:	cf 93       	push	r28
     4aa:	df 93       	push	r29
     4ac:	d8 2e       	mov	r13, r24
     4ae:	eb 01       	movw	r28, r22
     4b0:	8a 01       	movw	r16, r20
     4b2:	0e 94 fc 0f 	call	0x1ff8	; 0x1ff8 <LCD_Clear>
     4b6:	8f e0       	ldi	r24, 0x0F	; 15
     4b8:	91 e0       	ldi	r25, 0x01	; 1
     4ba:	9f 93       	push	r25
     4bc:	8f 93       	push	r24
     4be:	1f 92       	push	r1
     4c0:	1f 92       	push	r1
     4c2:	1f 92       	push	r1
     4c4:	83 e0       	ldi	r24, 0x03	; 3
     4c6:	f8 2e       	mov	r15, r24
     4c8:	ff 92       	push	r15
     4ca:	0e 94 dc 13 	call	0x27b8	; 0x27b8 <LCD_XYPrintf>
     4ce:	8b e1       	ldi	r24, 0x1B	; 27
     4d0:	91 e0       	ldi	r25, 0x01	; 1
     4d2:	9f 93       	push	r25
     4d4:	8f 93       	push	r24
     4d6:	1f 92       	push	r1
     4d8:	81 e0       	ldi	r24, 0x01	; 1
     4da:	8f 93       	push	r24
     4dc:	1f 92       	push	r1
     4de:	ff 92       	push	r15
     4e0:	0e 94 dc 13 	call	0x27b8	; 0x27b8 <LCD_XYPrintf>
     4e4:	86 e2       	ldi	r24, 0x26	; 38
     4e6:	91 e0       	ldi	r25, 0x01	; 1
     4e8:	9f 93       	push	r25
     4ea:	8f 93       	push	r24
     4ec:	0e 94 82 18 	call	0x3104	; 0x3104 <UART_Printf>
     4f0:	ce 01       	movw	r24, r28
     4f2:	0e 94 97 17 	call	0x2f2e	; 0x2f2e <UART_RxString>
     4f6:	0e 94 fc 0f 	call	0x1ff8	; 0x1ff8 <LCD_Clear>
     4fa:	60 e0       	ldi	r22, 0x00	; 0
     4fc:	80 e0       	ldi	r24, 0x00	; 0
     4fe:	0e 94 5d 10 	call	0x20ba	; 0x20ba <LCD_SetCursor>
     502:	8d b7       	in	r24, 0x3d	; 61
     504:	9e b7       	in	r25, 0x3e	; 62
     506:	0e 96       	adiw	r24, 0x0e	; 14
     508:	0f b6       	in	r0, 0x3f	; 63
     50a:	f8 94       	cli
     50c:	9e bf       	out	0x3e, r25	; 62
     50e:	0f be       	out	0x3f, r0	; 63
     510:	8d bf       	out	0x3d, r24	; 61
     512:	f8 01       	movw	r30, r16
     514:	80 85       	ldd	r24, Z+8	; 0x08
     516:	88 23       	and	r24, r24
     518:	a9 f0       	breq	.+42     	; 0x544 <screen_show_initialize+0xa6>
     51a:	df 93       	push	r29
     51c:	cf 93       	push	r28
     51e:	8c e2       	ldi	r24, 0x2C	; 44
     520:	91 e0       	ldi	r25, 0x01	; 1
     522:	9f 93       	push	r25
     524:	8f 93       	push	r24
     526:	1f 92       	push	r1
     528:	1f 92       	push	r1
     52a:	1f 92       	push	r1
     52c:	1f 92       	push	r1
     52e:	0e 94 dc 13 	call	0x27b8	; 0x27b8 <LCD_XYPrintf>
     532:	8d b7       	in	r24, 0x3d	; 61
     534:	9e b7       	in	r25, 0x3e	; 62
     536:	08 96       	adiw	r24, 0x08	; 8
     538:	0f b6       	in	r0, 0x3f	; 63
     53a:	f8 94       	cli
     53c:	9e bf       	out	0x3e, r25	; 62
     53e:	0f be       	out	0x3f, r0	; 63
     540:	8d bf       	out	0x3d, r24	; 61
     542:	10 c0       	rjmp	.+32     	; 0x564 <screen_show_initialize+0xc6>
     544:	82 e3       	ldi	r24, 0x32	; 50
     546:	91 e0       	ldi	r25, 0x01	; 1
     548:	9f 93       	push	r25
     54a:	8f 93       	push	r24
     54c:	1f 92       	push	r1
     54e:	1f 92       	push	r1
     550:	1f 92       	push	r1
     552:	1f 92       	push	r1
     554:	0e 94 dc 13 	call	0x27b8	; 0x27b8 <LCD_XYPrintf>
     558:	0f 90       	pop	r0
     55a:	0f 90       	pop	r0
     55c:	0f 90       	pop	r0
     55e:	0f 90       	pop	r0
     560:	0f 90       	pop	r0
     562:	0f 90       	pop	r0
     564:	81 e0       	ldi	r24, 0x01	; 1
     566:	90 e0       	ldi	r25, 0x00	; 0
     568:	0e 94 26 02 	call	0x44c	; 0x44c <LCDEXPLOITING_DrawLoading>
     56c:	7e 01       	movw	r14, r28
     56e:	99 e0       	ldi	r25, 0x09	; 9
     570:	e9 0e       	add	r14, r25
     572:	f1 1c       	adc	r15, r1
     574:	c7 01       	movw	r24, r14
     576:	0e 94 97 17 	call	0x2f2e	; 0x2f2e <UART_RxString>
     57a:	0e 94 fc 0f 	call	0x1ff8	; 0x1ff8 <LCD_Clear>
     57e:	60 e0       	ldi	r22, 0x00	; 0
     580:	80 e0       	ldi	r24, 0x00	; 0
     582:	0e 94 5d 10 	call	0x20ba	; 0x20ba <LCD_SetCursor>
     586:	f8 01       	movw	r30, r16
     588:	80 85       	ldd	r24, Z+8	; 0x08
     58a:	88 23       	and	r24, r24
     58c:	a9 f0       	breq	.+42     	; 0x5b8 <screen_show_initialize+0x11a>
     58e:	ff 92       	push	r15
     590:	ef 92       	push	r14
     592:	8e e3       	ldi	r24, 0x3E	; 62
     594:	91 e0       	ldi	r25, 0x01	; 1
     596:	9f 93       	push	r25
     598:	8f 93       	push	r24
     59a:	1f 92       	push	r1
     59c:	1f 92       	push	r1
     59e:	1f 92       	push	r1
     5a0:	1f 92       	push	r1
     5a2:	0e 94 dc 13 	call	0x27b8	; 0x27b8 <LCD_XYPrintf>
     5a6:	8d b7       	in	r24, 0x3d	; 61
     5a8:	9e b7       	in	r25, 0x3e	; 62
     5aa:	08 96       	adiw	r24, 0x08	; 8
     5ac:	0f b6       	in	r0, 0x3f	; 63
     5ae:	f8 94       	cli
     5b0:	9e bf       	out	0x3e, r25	; 62
     5b2:	0f be       	out	0x3f, r0	; 63
     5b4:	8d bf       	out	0x3d, r24	; 61
     5b6:	10 c0       	rjmp	.+32     	; 0x5d8 <screen_show_initialize+0x13a>
     5b8:	82 e3       	ldi	r24, 0x32	; 50
     5ba:	91 e0       	ldi	r25, 0x01	; 1
     5bc:	9f 93       	push	r25
     5be:	8f 93       	push	r24
     5c0:	1f 92       	push	r1
     5c2:	1f 92       	push	r1
     5c4:	1f 92       	push	r1
     5c6:	1f 92       	push	r1
     5c8:	0e 94 dc 13 	call	0x27b8	; 0x27b8 <LCD_XYPrintf>
     5cc:	0f 90       	pop	r0
     5ce:	0f 90       	pop	r0
     5d0:	0f 90       	pop	r0
     5d2:	0f 90       	pop	r0
     5d4:	0f 90       	pop	r0
     5d6:	0f 90       	pop	r0
     5d8:	82 e0       	ldi	r24, 0x02	; 2
     5da:	90 e0       	ldi	r25, 0x00	; 0
     5dc:	0e 94 26 02 	call	0x44c	; 0x44c <LCDEXPLOITING_DrawLoading>
     5e0:	7e 01       	movw	r14, r28
     5e2:	92 e1       	ldi	r25, 0x12	; 18
     5e4:	e9 0e       	add	r14, r25
     5e6:	f1 1c       	adc	r15, r1
     5e8:	c7 01       	movw	r24, r14
     5ea:	0e 94 97 17 	call	0x2f2e	; 0x2f2e <UART_RxString>
     5ee:	0e 94 fc 0f 	call	0x1ff8	; 0x1ff8 <LCD_Clear>
     5f2:	60 e0       	ldi	r22, 0x00	; 0
     5f4:	80 e0       	ldi	r24, 0x00	; 0
     5f6:	0e 94 5d 10 	call	0x20ba	; 0x20ba <LCD_SetCursor>
     5fa:	f8 01       	movw	r30, r16
     5fc:	80 85       	ldd	r24, Z+8	; 0x08
     5fe:	88 23       	and	r24, r24
     600:	a9 f0       	breq	.+42     	; 0x62c <screen_show_initialize+0x18e>
     602:	ff 92       	push	r15
     604:	ef 92       	push	r14
     606:	84 e4       	ldi	r24, 0x44	; 68
     608:	91 e0       	ldi	r25, 0x01	; 1
     60a:	9f 93       	push	r25
     60c:	8f 93       	push	r24
     60e:	1f 92       	push	r1
     610:	1f 92       	push	r1
     612:	1f 92       	push	r1
     614:	1f 92       	push	r1
     616:	0e 94 dc 13 	call	0x27b8	; 0x27b8 <LCD_XYPrintf>
     61a:	8d b7       	in	r24, 0x3d	; 61
     61c:	9e b7       	in	r25, 0x3e	; 62
     61e:	08 96       	adiw	r24, 0x08	; 8
     620:	0f b6       	in	r0, 0x3f	; 63
     622:	f8 94       	cli
     624:	9e bf       	out	0x3e, r25	; 62
     626:	0f be       	out	0x3f, r0	; 63
     628:	8d bf       	out	0x3d, r24	; 61
     62a:	10 c0       	rjmp	.+32     	; 0x64c <screen_show_initialize+0x1ae>
     62c:	82 e3       	ldi	r24, 0x32	; 50
     62e:	91 e0       	ldi	r25, 0x01	; 1
     630:	9f 93       	push	r25
     632:	8f 93       	push	r24
     634:	1f 92       	push	r1
     636:	1f 92       	push	r1
     638:	1f 92       	push	r1
     63a:	1f 92       	push	r1
     63c:	0e 94 dc 13 	call	0x27b8	; 0x27b8 <LCD_XYPrintf>
     640:	0f 90       	pop	r0
     642:	0f 90       	pop	r0
     644:	0f 90       	pop	r0
     646:	0f 90       	pop	r0
     648:	0f 90       	pop	r0
     64a:	0f 90       	pop	r0
     64c:	83 e0       	ldi	r24, 0x03	; 3
     64e:	90 e0       	ldi	r25, 0x00	; 0
     650:	0e 94 26 02 	call	0x44c	; 0x44c <LCDEXPLOITING_DrawLoading>
     654:	7e 01       	movw	r14, r28
     656:	9b e1       	ldi	r25, 0x1B	; 27
     658:	e9 0e       	add	r14, r25
     65a:	f1 1c       	adc	r15, r1
     65c:	c7 01       	movw	r24, r14
     65e:	0e 94 97 17 	call	0x2f2e	; 0x2f2e <UART_RxString>
     662:	0e 94 fc 0f 	call	0x1ff8	; 0x1ff8 <LCD_Clear>
     666:	60 e0       	ldi	r22, 0x00	; 0
     668:	80 e0       	ldi	r24, 0x00	; 0
     66a:	0e 94 5d 10 	call	0x20ba	; 0x20ba <LCD_SetCursor>
     66e:	f8 01       	movw	r30, r16
     670:	80 85       	ldd	r24, Z+8	; 0x08
     672:	88 23       	and	r24, r24
     674:	a9 f0       	breq	.+42     	; 0x6a0 <screen_show_initialize+0x202>
     676:	ff 92       	push	r15
     678:	ef 92       	push	r14
     67a:	8a e4       	ldi	r24, 0x4A	; 74
     67c:	91 e0       	ldi	r25, 0x01	; 1
     67e:	9f 93       	push	r25
     680:	8f 93       	push	r24
     682:	1f 92       	push	r1
     684:	1f 92       	push	r1
     686:	1f 92       	push	r1
     688:	1f 92       	push	r1
     68a:	0e 94 dc 13 	call	0x27b8	; 0x27b8 <LCD_XYPrintf>
     68e:	8d b7       	in	r24, 0x3d	; 61
     690:	9e b7       	in	r25, 0x3e	; 62
     692:	08 96       	adiw	r24, 0x08	; 8
     694:	0f b6       	in	r0, 0x3f	; 63
     696:	f8 94       	cli
     698:	9e bf       	out	0x3e, r25	; 62
     69a:	0f be       	out	0x3f, r0	; 63
     69c:	8d bf       	out	0x3d, r24	; 61
     69e:	10 c0       	rjmp	.+32     	; 0x6c0 <screen_show_initialize+0x222>
     6a0:	82 e3       	ldi	r24, 0x32	; 50
     6a2:	91 e0       	ldi	r25, 0x01	; 1
     6a4:	9f 93       	push	r25
     6a6:	8f 93       	push	r24
     6a8:	1f 92       	push	r1
     6aa:	1f 92       	push	r1
     6ac:	1f 92       	push	r1
     6ae:	1f 92       	push	r1
     6b0:	0e 94 dc 13 	call	0x27b8	; 0x27b8 <LCD_XYPrintf>
     6b4:	0f 90       	pop	r0
     6b6:	0f 90       	pop	r0
     6b8:	0f 90       	pop	r0
     6ba:	0f 90       	pop	r0
     6bc:	0f 90       	pop	r0
     6be:	0f 90       	pop	r0
     6c0:	84 e0       	ldi	r24, 0x04	; 4
     6c2:	90 e0       	ldi	r25, 0x00	; 0
     6c4:	0e 94 26 02 	call	0x44c	; 0x44c <LCDEXPLOITING_DrawLoading>
     6c8:	7e 01       	movw	r14, r28
     6ca:	94 e2       	ldi	r25, 0x24	; 36
     6cc:	e9 0e       	add	r14, r25
     6ce:	f1 1c       	adc	r15, r1
     6d0:	c7 01       	movw	r24, r14
     6d2:	0e 94 97 17 	call	0x2f2e	; 0x2f2e <UART_RxString>
     6d6:	0e 94 fc 0f 	call	0x1ff8	; 0x1ff8 <LCD_Clear>
     6da:	60 e0       	ldi	r22, 0x00	; 0
     6dc:	80 e0       	ldi	r24, 0x00	; 0
     6de:	0e 94 5d 10 	call	0x20ba	; 0x20ba <LCD_SetCursor>
     6e2:	f8 01       	movw	r30, r16
     6e4:	80 85       	ldd	r24, Z+8	; 0x08
     6e6:	88 23       	and	r24, r24
     6e8:	a9 f0       	breq	.+42     	; 0x714 <screen_show_initialize+0x276>
     6ea:	ff 92       	push	r15
     6ec:	ef 92       	push	r14
     6ee:	80 e5       	ldi	r24, 0x50	; 80
     6f0:	91 e0       	ldi	r25, 0x01	; 1
     6f2:	9f 93       	push	r25
     6f4:	8f 93       	push	r24
     6f6:	1f 92       	push	r1
     6f8:	1f 92       	push	r1
     6fa:	1f 92       	push	r1
     6fc:	1f 92       	push	r1
     6fe:	0e 94 dc 13 	call	0x27b8	; 0x27b8 <LCD_XYPrintf>
     702:	8d b7       	in	r24, 0x3d	; 61
     704:	9e b7       	in	r25, 0x3e	; 62
     706:	08 96       	adiw	r24, 0x08	; 8
     708:	0f b6       	in	r0, 0x3f	; 63
     70a:	f8 94       	cli
     70c:	9e bf       	out	0x3e, r25	; 62
     70e:	0f be       	out	0x3f, r0	; 63
     710:	8d bf       	out	0x3d, r24	; 61
     712:	10 c0       	rjmp	.+32     	; 0x734 <screen_show_initialize+0x296>
     714:	82 e3       	ldi	r24, 0x32	; 50
     716:	91 e0       	ldi	r25, 0x01	; 1
     718:	9f 93       	push	r25
     71a:	8f 93       	push	r24
     71c:	1f 92       	push	r1
     71e:	1f 92       	push	r1
     720:	1f 92       	push	r1
     722:	1f 92       	push	r1
     724:	0e 94 dc 13 	call	0x27b8	; 0x27b8 <LCD_XYPrintf>
     728:	0f 90       	pop	r0
     72a:	0f 90       	pop	r0
     72c:	0f 90       	pop	r0
     72e:	0f 90       	pop	r0
     730:	0f 90       	pop	r0
     732:	0f 90       	pop	r0
     734:	85 e0       	ldi	r24, 0x05	; 5
     736:	90 e0       	ldi	r25, 0x00	; 0
     738:	0e 94 26 02 	call	0x44c	; 0x44c <LCDEXPLOITING_DrawLoading>
     73c:	7e 01       	movw	r14, r28
     73e:	9d e2       	ldi	r25, 0x2D	; 45
     740:	e9 0e       	add	r14, r25
     742:	f1 1c       	adc	r15, r1
     744:	c7 01       	movw	r24, r14
     746:	0e 94 97 17 	call	0x2f2e	; 0x2f2e <UART_RxString>
     74a:	0e 94 fc 0f 	call	0x1ff8	; 0x1ff8 <LCD_Clear>
     74e:	60 e0       	ldi	r22, 0x00	; 0
     750:	80 e0       	ldi	r24, 0x00	; 0
     752:	0e 94 5d 10 	call	0x20ba	; 0x20ba <LCD_SetCursor>
     756:	f8 01       	movw	r30, r16
     758:	80 85       	ldd	r24, Z+8	; 0x08
     75a:	88 23       	and	r24, r24
     75c:	a9 f0       	breq	.+42     	; 0x788 <screen_show_initialize+0x2ea>
     75e:	ff 92       	push	r15
     760:	ef 92       	push	r14
     762:	86 e5       	ldi	r24, 0x56	; 86
     764:	91 e0       	ldi	r25, 0x01	; 1
     766:	9f 93       	push	r25
     768:	8f 93       	push	r24
     76a:	1f 92       	push	r1
     76c:	1f 92       	push	r1
     76e:	1f 92       	push	r1
     770:	1f 92       	push	r1
     772:	0e 94 dc 13 	call	0x27b8	; 0x27b8 <LCD_XYPrintf>
     776:	8d b7       	in	r24, 0x3d	; 61
     778:	9e b7       	in	r25, 0x3e	; 62
     77a:	08 96       	adiw	r24, 0x08	; 8
     77c:	0f b6       	in	r0, 0x3f	; 63
     77e:	f8 94       	cli
     780:	9e bf       	out	0x3e, r25	; 62
     782:	0f be       	out	0x3f, r0	; 63
     784:	8d bf       	out	0x3d, r24	; 61
     786:	10 c0       	rjmp	.+32     	; 0x7a8 <screen_show_initialize+0x30a>
     788:	82 e3       	ldi	r24, 0x32	; 50
     78a:	91 e0       	ldi	r25, 0x01	; 1
     78c:	9f 93       	push	r25
     78e:	8f 93       	push	r24
     790:	1f 92       	push	r1
     792:	1f 92       	push	r1
     794:	1f 92       	push	r1
     796:	1f 92       	push	r1
     798:	0e 94 dc 13 	call	0x27b8	; 0x27b8 <LCD_XYPrintf>
     79c:	0f 90       	pop	r0
     79e:	0f 90       	pop	r0
     7a0:	0f 90       	pop	r0
     7a2:	0f 90       	pop	r0
     7a4:	0f 90       	pop	r0
     7a6:	0f 90       	pop	r0
     7a8:	86 e0       	ldi	r24, 0x06	; 6
     7aa:	90 e0       	ldi	r25, 0x00	; 0
     7ac:	0e 94 26 02 	call	0x44c	; 0x44c <LCDEXPLOITING_DrawLoading>
     7b0:	7e 01       	movw	r14, r28
     7b2:	96 e3       	ldi	r25, 0x36	; 54
     7b4:	e9 0e       	add	r14, r25
     7b6:	f1 1c       	adc	r15, r1
     7b8:	c7 01       	movw	r24, r14
     7ba:	0e 94 97 17 	call	0x2f2e	; 0x2f2e <UART_RxString>
     7be:	0e 94 fc 0f 	call	0x1ff8	; 0x1ff8 <LCD_Clear>
     7c2:	60 e0       	ldi	r22, 0x00	; 0
     7c4:	80 e0       	ldi	r24, 0x00	; 0
     7c6:	0e 94 5d 10 	call	0x20ba	; 0x20ba <LCD_SetCursor>
     7ca:	f8 01       	movw	r30, r16
     7cc:	80 85       	ldd	r24, Z+8	; 0x08
     7ce:	88 23       	and	r24, r24
     7d0:	a9 f0       	breq	.+42     	; 0x7fc <screen_show_initialize+0x35e>
     7d2:	ff 92       	push	r15
     7d4:	ef 92       	push	r14
     7d6:	8c e5       	ldi	r24, 0x5C	; 92
     7d8:	91 e0       	ldi	r25, 0x01	; 1
     7da:	9f 93       	push	r25
     7dc:	8f 93       	push	r24
     7de:	1f 92       	push	r1
     7e0:	1f 92       	push	r1
     7e2:	1f 92       	push	r1
     7e4:	1f 92       	push	r1
     7e6:	0e 94 dc 13 	call	0x27b8	; 0x27b8 <LCD_XYPrintf>
     7ea:	8d b7       	in	r24, 0x3d	; 61
     7ec:	9e b7       	in	r25, 0x3e	; 62
     7ee:	08 96       	adiw	r24, 0x08	; 8
     7f0:	0f b6       	in	r0, 0x3f	; 63
     7f2:	f8 94       	cli
     7f4:	9e bf       	out	0x3e, r25	; 62
     7f6:	0f be       	out	0x3f, r0	; 63
     7f8:	8d bf       	out	0x3d, r24	; 61
     7fa:	10 c0       	rjmp	.+32     	; 0x81c <screen_show_initialize+0x37e>
     7fc:	82 e3       	ldi	r24, 0x32	; 50
     7fe:	91 e0       	ldi	r25, 0x01	; 1
     800:	9f 93       	push	r25
     802:	8f 93       	push	r24
     804:	1f 92       	push	r1
     806:	1f 92       	push	r1
     808:	1f 92       	push	r1
     80a:	1f 92       	push	r1
     80c:	0e 94 dc 13 	call	0x27b8	; 0x27b8 <LCD_XYPrintf>
     810:	0f 90       	pop	r0
     812:	0f 90       	pop	r0
     814:	0f 90       	pop	r0
     816:	0f 90       	pop	r0
     818:	0f 90       	pop	r0
     81a:	0f 90       	pop	r0
     81c:	87 e0       	ldi	r24, 0x07	; 7
     81e:	90 e0       	ldi	r25, 0x00	; 0
     820:	0e 94 26 02 	call	0x44c	; 0x44c <LCDEXPLOITING_DrawLoading>
     824:	7e 01       	movw	r14, r28
     826:	9f e3       	ldi	r25, 0x3F	; 63
     828:	e9 0e       	add	r14, r25
     82a:	f1 1c       	adc	r15, r1
     82c:	c7 01       	movw	r24, r14
     82e:	0e 94 97 17 	call	0x2f2e	; 0x2f2e <UART_RxString>
     832:	0e 94 fc 0f 	call	0x1ff8	; 0x1ff8 <LCD_Clear>
     836:	60 e0       	ldi	r22, 0x00	; 0
     838:	80 e0       	ldi	r24, 0x00	; 0
     83a:	0e 94 5d 10 	call	0x20ba	; 0x20ba <LCD_SetCursor>
     83e:	f8 01       	movw	r30, r16
     840:	80 85       	ldd	r24, Z+8	; 0x08
     842:	88 23       	and	r24, r24
     844:	a9 f0       	breq	.+42     	; 0x870 <__stack+0x11>
     846:	ff 92       	push	r15
     848:	ef 92       	push	r14
     84a:	82 e6       	ldi	r24, 0x62	; 98
     84c:	91 e0       	ldi	r25, 0x01	; 1
     84e:	9f 93       	push	r25
     850:	8f 93       	push	r24
     852:	1f 92       	push	r1
     854:	1f 92       	push	r1
     856:	1f 92       	push	r1
     858:	1f 92       	push	r1
     85a:	0e 94 dc 13 	call	0x27b8	; 0x27b8 <LCD_XYPrintf>
     85e:	8d b7       	in	r24, 0x3d	; 61
     860:	9e b7       	in	r25, 0x3e	; 62
     862:	08 96       	adiw	r24, 0x08	; 8
     864:	0f b6       	in	r0, 0x3f	; 63
     866:	f8 94       	cli
     868:	9e bf       	out	0x3e, r25	; 62
     86a:	0f be       	out	0x3f, r0	; 63
     86c:	8d bf       	out	0x3d, r24	; 61
     86e:	10 c0       	rjmp	.+32     	; 0x890 <__stack+0x31>
     870:	82 e3       	ldi	r24, 0x32	; 50
     872:	91 e0       	ldi	r25, 0x01	; 1
     874:	9f 93       	push	r25
     876:	8f 93       	push	r24
     878:	1f 92       	push	r1
     87a:	1f 92       	push	r1
     87c:	1f 92       	push	r1
     87e:	1f 92       	push	r1
     880:	0e 94 dc 13 	call	0x27b8	; 0x27b8 <LCD_XYPrintf>
     884:	0f 90       	pop	r0
     886:	0f 90       	pop	r0
     888:	0f 90       	pop	r0
     88a:	0f 90       	pop	r0
     88c:	0f 90       	pop	r0
     88e:	0f 90       	pop	r0
     890:	88 e0       	ldi	r24, 0x08	; 8
     892:	90 e0       	ldi	r25, 0x00	; 0
     894:	0e 94 26 02 	call	0x44c	; 0x44c <LCDEXPLOITING_DrawLoading>
     898:	7e 01       	movw	r14, r28
     89a:	98 e4       	ldi	r25, 0x48	; 72
     89c:	e9 0e       	add	r14, r25
     89e:	f1 1c       	adc	r15, r1
     8a0:	c7 01       	movw	r24, r14
     8a2:	0e 94 97 17 	call	0x2f2e	; 0x2f2e <UART_RxString>
     8a6:	0e 94 fc 0f 	call	0x1ff8	; 0x1ff8 <LCD_Clear>
     8aa:	60 e0       	ldi	r22, 0x00	; 0
     8ac:	80 e0       	ldi	r24, 0x00	; 0
     8ae:	0e 94 5d 10 	call	0x20ba	; 0x20ba <LCD_SetCursor>
     8b2:	f8 01       	movw	r30, r16
     8b4:	80 85       	ldd	r24, Z+8	; 0x08
     8b6:	88 23       	and	r24, r24
     8b8:	a9 f0       	breq	.+42     	; 0x8e4 <__stack+0x85>
     8ba:	ff 92       	push	r15
     8bc:	ef 92       	push	r14
     8be:	88 e6       	ldi	r24, 0x68	; 104
     8c0:	91 e0       	ldi	r25, 0x01	; 1
     8c2:	9f 93       	push	r25
     8c4:	8f 93       	push	r24
     8c6:	1f 92       	push	r1
     8c8:	1f 92       	push	r1
     8ca:	1f 92       	push	r1
     8cc:	1f 92       	push	r1
     8ce:	0e 94 dc 13 	call	0x27b8	; 0x27b8 <LCD_XYPrintf>
     8d2:	8d b7       	in	r24, 0x3d	; 61
     8d4:	9e b7       	in	r25, 0x3e	; 62
     8d6:	08 96       	adiw	r24, 0x08	; 8
     8d8:	0f b6       	in	r0, 0x3f	; 63
     8da:	f8 94       	cli
     8dc:	9e bf       	out	0x3e, r25	; 62
     8de:	0f be       	out	0x3f, r0	; 63
     8e0:	8d bf       	out	0x3d, r24	; 61
     8e2:	10 c0       	rjmp	.+32     	; 0x904 <__stack+0xa5>
     8e4:	82 e3       	ldi	r24, 0x32	; 50
     8e6:	91 e0       	ldi	r25, 0x01	; 1
     8e8:	9f 93       	push	r25
     8ea:	8f 93       	push	r24
     8ec:	1f 92       	push	r1
     8ee:	1f 92       	push	r1
     8f0:	1f 92       	push	r1
     8f2:	1f 92       	push	r1
     8f4:	0e 94 dc 13 	call	0x27b8	; 0x27b8 <LCD_XYPrintf>
     8f8:	0f 90       	pop	r0
     8fa:	0f 90       	pop	r0
     8fc:	0f 90       	pop	r0
     8fe:	0f 90       	pop	r0
     900:	0f 90       	pop	r0
     902:	0f 90       	pop	r0
     904:	89 e0       	ldi	r24, 0x09	; 9
     906:	90 e0       	ldi	r25, 0x00	; 0
     908:	0e 94 26 02 	call	0x44c	; 0x44c <LCDEXPLOITING_DrawLoading>
     90c:	7e 01       	movw	r14, r28
     90e:	91 e5       	ldi	r25, 0x51	; 81
     910:	e9 0e       	add	r14, r25
     912:	f1 1c       	adc	r15, r1
     914:	c7 01       	movw	r24, r14
     916:	0e 94 97 17 	call	0x2f2e	; 0x2f2e <UART_RxString>
     91a:	0e 94 fc 0f 	call	0x1ff8	; 0x1ff8 <LCD_Clear>
     91e:	60 e0       	ldi	r22, 0x00	; 0
     920:	80 e0       	ldi	r24, 0x00	; 0
     922:	0e 94 5d 10 	call	0x20ba	; 0x20ba <LCD_SetCursor>
     926:	f8 01       	movw	r30, r16
     928:	80 85       	ldd	r24, Z+8	; 0x08
     92a:	88 23       	and	r24, r24
     92c:	a9 f0       	breq	.+42     	; 0x958 <__stack+0xf9>
     92e:	ff 92       	push	r15
     930:	ef 92       	push	r14
     932:	8e e6       	ldi	r24, 0x6E	; 110
     934:	91 e0       	ldi	r25, 0x01	; 1
     936:	9f 93       	push	r25
     938:	8f 93       	push	r24
     93a:	1f 92       	push	r1
     93c:	1f 92       	push	r1
     93e:	1f 92       	push	r1
     940:	1f 92       	push	r1
     942:	0e 94 dc 13 	call	0x27b8	; 0x27b8 <LCD_XYPrintf>
     946:	8d b7       	in	r24, 0x3d	; 61
     948:	9e b7       	in	r25, 0x3e	; 62
     94a:	08 96       	adiw	r24, 0x08	; 8
     94c:	0f b6       	in	r0, 0x3f	; 63
     94e:	f8 94       	cli
     950:	9e bf       	out	0x3e, r25	; 62
     952:	0f be       	out	0x3f, r0	; 63
     954:	8d bf       	out	0x3d, r24	; 61
     956:	10 c0       	rjmp	.+32     	; 0x978 <__stack+0x119>
     958:	82 e3       	ldi	r24, 0x32	; 50
     95a:	91 e0       	ldi	r25, 0x01	; 1
     95c:	9f 93       	push	r25
     95e:	8f 93       	push	r24
     960:	1f 92       	push	r1
     962:	1f 92       	push	r1
     964:	1f 92       	push	r1
     966:	1f 92       	push	r1
     968:	0e 94 dc 13 	call	0x27b8	; 0x27b8 <LCD_XYPrintf>
     96c:	0f 90       	pop	r0
     96e:	0f 90       	pop	r0
     970:	0f 90       	pop	r0
     972:	0f 90       	pop	r0
     974:	0f 90       	pop	r0
     976:	0f 90       	pop	r0
     978:	8a e0       	ldi	r24, 0x0A	; 10
     97a:	90 e0       	ldi	r25, 0x00	; 0
     97c:	0e 94 26 02 	call	0x44c	; 0x44c <LCDEXPLOITING_DrawLoading>
     980:	7e 01       	movw	r14, r28
     982:	9a e5       	ldi	r25, 0x5A	; 90
     984:	e9 0e       	add	r14, r25
     986:	f1 1c       	adc	r15, r1
     988:	c7 01       	movw	r24, r14
     98a:	0e 94 97 17 	call	0x2f2e	; 0x2f2e <UART_RxString>
     98e:	0e 94 fc 0f 	call	0x1ff8	; 0x1ff8 <LCD_Clear>
     992:	60 e0       	ldi	r22, 0x00	; 0
     994:	80 e0       	ldi	r24, 0x00	; 0
     996:	0e 94 5d 10 	call	0x20ba	; 0x20ba <LCD_SetCursor>
     99a:	f8 01       	movw	r30, r16
     99c:	80 85       	ldd	r24, Z+8	; 0x08
     99e:	88 23       	and	r24, r24
     9a0:	a9 f0       	breq	.+42     	; 0x9cc <__stack+0x16d>
     9a2:	ff 92       	push	r15
     9a4:	ef 92       	push	r14
     9a6:	84 e7       	ldi	r24, 0x74	; 116
     9a8:	91 e0       	ldi	r25, 0x01	; 1
     9aa:	9f 93       	push	r25
     9ac:	8f 93       	push	r24
     9ae:	1f 92       	push	r1
     9b0:	1f 92       	push	r1
     9b2:	1f 92       	push	r1
     9b4:	1f 92       	push	r1
     9b6:	0e 94 dc 13 	call	0x27b8	; 0x27b8 <LCD_XYPrintf>
     9ba:	8d b7       	in	r24, 0x3d	; 61
     9bc:	9e b7       	in	r25, 0x3e	; 62
     9be:	08 96       	adiw	r24, 0x08	; 8
     9c0:	0f b6       	in	r0, 0x3f	; 63
     9c2:	f8 94       	cli
     9c4:	9e bf       	out	0x3e, r25	; 62
     9c6:	0f be       	out	0x3f, r0	; 63
     9c8:	8d bf       	out	0x3d, r24	; 61
     9ca:	10 c0       	rjmp	.+32     	; 0x9ec <__stack+0x18d>
     9cc:	82 e3       	ldi	r24, 0x32	; 50
     9ce:	91 e0       	ldi	r25, 0x01	; 1
     9d0:	9f 93       	push	r25
     9d2:	8f 93       	push	r24
     9d4:	1f 92       	push	r1
     9d6:	1f 92       	push	r1
     9d8:	1f 92       	push	r1
     9da:	1f 92       	push	r1
     9dc:	0e 94 dc 13 	call	0x27b8	; 0x27b8 <LCD_XYPrintf>
     9e0:	0f 90       	pop	r0
     9e2:	0f 90       	pop	r0
     9e4:	0f 90       	pop	r0
     9e6:	0f 90       	pop	r0
     9e8:	0f 90       	pop	r0
     9ea:	0f 90       	pop	r0
     9ec:	8b e0       	ldi	r24, 0x0B	; 11
     9ee:	90 e0       	ldi	r25, 0x00	; 0
     9f0:	0e 94 26 02 	call	0x44c	; 0x44c <LCDEXPLOITING_DrawLoading>
     9f4:	7e 01       	movw	r14, r28
     9f6:	93 e6       	ldi	r25, 0x63	; 99
     9f8:	e9 0e       	add	r14, r25
     9fa:	f1 1c       	adc	r15, r1
     9fc:	c7 01       	movw	r24, r14
     9fe:	0e 94 97 17 	call	0x2f2e	; 0x2f2e <UART_RxString>
     a02:	0e 94 fc 0f 	call	0x1ff8	; 0x1ff8 <LCD_Clear>
     a06:	60 e0       	ldi	r22, 0x00	; 0
     a08:	80 e0       	ldi	r24, 0x00	; 0
     a0a:	0e 94 5d 10 	call	0x20ba	; 0x20ba <LCD_SetCursor>
     a0e:	f8 01       	movw	r30, r16
     a10:	80 85       	ldd	r24, Z+8	; 0x08
     a12:	88 23       	and	r24, r24
     a14:	a9 f0       	breq	.+42     	; 0xa40 <__stack+0x1e1>
     a16:	ff 92       	push	r15
     a18:	ef 92       	push	r14
     a1a:	8a e7       	ldi	r24, 0x7A	; 122
     a1c:	91 e0       	ldi	r25, 0x01	; 1
     a1e:	9f 93       	push	r25
     a20:	8f 93       	push	r24
     a22:	1f 92       	push	r1
     a24:	1f 92       	push	r1
     a26:	1f 92       	push	r1
     a28:	1f 92       	push	r1
     a2a:	0e 94 dc 13 	call	0x27b8	; 0x27b8 <LCD_XYPrintf>
     a2e:	8d b7       	in	r24, 0x3d	; 61
     a30:	9e b7       	in	r25, 0x3e	; 62
     a32:	08 96       	adiw	r24, 0x08	; 8
     a34:	0f b6       	in	r0, 0x3f	; 63
     a36:	f8 94       	cli
     a38:	9e bf       	out	0x3e, r25	; 62
     a3a:	0f be       	out	0x3f, r0	; 63
     a3c:	8d bf       	out	0x3d, r24	; 61
     a3e:	10 c0       	rjmp	.+32     	; 0xa60 <__stack+0x201>
     a40:	82 e3       	ldi	r24, 0x32	; 50
     a42:	91 e0       	ldi	r25, 0x01	; 1
     a44:	9f 93       	push	r25
     a46:	8f 93       	push	r24
     a48:	1f 92       	push	r1
     a4a:	1f 92       	push	r1
     a4c:	1f 92       	push	r1
     a4e:	1f 92       	push	r1
     a50:	0e 94 dc 13 	call	0x27b8	; 0x27b8 <LCD_XYPrintf>
     a54:	0f 90       	pop	r0
     a56:	0f 90       	pop	r0
     a58:	0f 90       	pop	r0
     a5a:	0f 90       	pop	r0
     a5c:	0f 90       	pop	r0
     a5e:	0f 90       	pop	r0
     a60:	8c e0       	ldi	r24, 0x0C	; 12
     a62:	90 e0       	ldi	r25, 0x00	; 0
     a64:	0e 94 26 02 	call	0x44c	; 0x44c <LCDEXPLOITING_DrawLoading>
     a68:	7e 01       	movw	r14, r28
     a6a:	9c e6       	ldi	r25, 0x6C	; 108
     a6c:	e9 0e       	add	r14, r25
     a6e:	f1 1c       	adc	r15, r1
     a70:	c7 01       	movw	r24, r14
     a72:	0e 94 97 17 	call	0x2f2e	; 0x2f2e <UART_RxString>
     a76:	0e 94 fc 0f 	call	0x1ff8	; 0x1ff8 <LCD_Clear>
     a7a:	60 e0       	ldi	r22, 0x00	; 0
     a7c:	80 e0       	ldi	r24, 0x00	; 0
     a7e:	0e 94 5d 10 	call	0x20ba	; 0x20ba <LCD_SetCursor>
     a82:	f8 01       	movw	r30, r16
     a84:	80 85       	ldd	r24, Z+8	; 0x08
     a86:	88 23       	and	r24, r24
     a88:	a9 f0       	breq	.+42     	; 0xab4 <__stack+0x255>
     a8a:	ff 92       	push	r15
     a8c:	ef 92       	push	r14
     a8e:	80 e8       	ldi	r24, 0x80	; 128
     a90:	91 e0       	ldi	r25, 0x01	; 1
     a92:	9f 93       	push	r25
     a94:	8f 93       	push	r24
     a96:	1f 92       	push	r1
     a98:	1f 92       	push	r1
     a9a:	1f 92       	push	r1
     a9c:	1f 92       	push	r1
     a9e:	0e 94 dc 13 	call	0x27b8	; 0x27b8 <LCD_XYPrintf>
     aa2:	8d b7       	in	r24, 0x3d	; 61
     aa4:	9e b7       	in	r25, 0x3e	; 62
     aa6:	08 96       	adiw	r24, 0x08	; 8
     aa8:	0f b6       	in	r0, 0x3f	; 63
     aaa:	f8 94       	cli
     aac:	9e bf       	out	0x3e, r25	; 62
     aae:	0f be       	out	0x3f, r0	; 63
     ab0:	8d bf       	out	0x3d, r24	; 61
     ab2:	10 c0       	rjmp	.+32     	; 0xad4 <__stack+0x275>
     ab4:	82 e3       	ldi	r24, 0x32	; 50
     ab6:	91 e0       	ldi	r25, 0x01	; 1
     ab8:	9f 93       	push	r25
     aba:	8f 93       	push	r24
     abc:	1f 92       	push	r1
     abe:	1f 92       	push	r1
     ac0:	1f 92       	push	r1
     ac2:	1f 92       	push	r1
     ac4:	0e 94 dc 13 	call	0x27b8	; 0x27b8 <LCD_XYPrintf>
     ac8:	0f 90       	pop	r0
     aca:	0f 90       	pop	r0
     acc:	0f 90       	pop	r0
     ace:	0f 90       	pop	r0
     ad0:	0f 90       	pop	r0
     ad2:	0f 90       	pop	r0
     ad4:	8d e0       	ldi	r24, 0x0D	; 13
     ad6:	90 e0       	ldi	r25, 0x00	; 0
     ad8:	0e 94 26 02 	call	0x44c	; 0x44c <LCDEXPLOITING_DrawLoading>
     adc:	7e 01       	movw	r14, r28
     ade:	95 e7       	ldi	r25, 0x75	; 117
     ae0:	e9 0e       	add	r14, r25
     ae2:	f1 1c       	adc	r15, r1
     ae4:	c7 01       	movw	r24, r14
     ae6:	0e 94 97 17 	call	0x2f2e	; 0x2f2e <UART_RxString>
     aea:	0e 94 fc 0f 	call	0x1ff8	; 0x1ff8 <LCD_Clear>
     aee:	60 e0       	ldi	r22, 0x00	; 0
     af0:	80 e0       	ldi	r24, 0x00	; 0
     af2:	0e 94 5d 10 	call	0x20ba	; 0x20ba <LCD_SetCursor>
     af6:	f8 01       	movw	r30, r16
     af8:	80 85       	ldd	r24, Z+8	; 0x08
     afa:	88 23       	and	r24, r24
     afc:	a9 f0       	breq	.+42     	; 0xb28 <__stack+0x2c9>
     afe:	ff 92       	push	r15
     b00:	ef 92       	push	r14
     b02:	86 e8       	ldi	r24, 0x86	; 134
     b04:	91 e0       	ldi	r25, 0x01	; 1
     b06:	9f 93       	push	r25
     b08:	8f 93       	push	r24
     b0a:	1f 92       	push	r1
     b0c:	1f 92       	push	r1
     b0e:	1f 92       	push	r1
     b10:	1f 92       	push	r1
     b12:	0e 94 dc 13 	call	0x27b8	; 0x27b8 <LCD_XYPrintf>
     b16:	8d b7       	in	r24, 0x3d	; 61
     b18:	9e b7       	in	r25, 0x3e	; 62
     b1a:	08 96       	adiw	r24, 0x08	; 8
     b1c:	0f b6       	in	r0, 0x3f	; 63
     b1e:	f8 94       	cli
     b20:	9e bf       	out	0x3e, r25	; 62
     b22:	0f be       	out	0x3f, r0	; 63
     b24:	8d bf       	out	0x3d, r24	; 61
     b26:	10 c0       	rjmp	.+32     	; 0xb48 <__stack+0x2e9>
     b28:	82 e3       	ldi	r24, 0x32	; 50
     b2a:	91 e0       	ldi	r25, 0x01	; 1
     b2c:	9f 93       	push	r25
     b2e:	8f 93       	push	r24
     b30:	1f 92       	push	r1
     b32:	1f 92       	push	r1
     b34:	1f 92       	push	r1
     b36:	1f 92       	push	r1
     b38:	0e 94 dc 13 	call	0x27b8	; 0x27b8 <LCD_XYPrintf>
     b3c:	0f 90       	pop	r0
     b3e:	0f 90       	pop	r0
     b40:	0f 90       	pop	r0
     b42:	0f 90       	pop	r0
     b44:	0f 90       	pop	r0
     b46:	0f 90       	pop	r0
     b48:	8e e0       	ldi	r24, 0x0E	; 14
     b4a:	90 e0       	ldi	r25, 0x00	; 0
     b4c:	0e 94 26 02 	call	0x44c	; 0x44c <LCDEXPLOITING_DrawLoading>
     b50:	7e 01       	movw	r14, r28
     b52:	9e e7       	ldi	r25, 0x7E	; 126
     b54:	e9 0e       	add	r14, r25
     b56:	f1 1c       	adc	r15, r1
     b58:	c7 01       	movw	r24, r14
     b5a:	0e 94 97 17 	call	0x2f2e	; 0x2f2e <UART_RxString>
     b5e:	0e 94 fc 0f 	call	0x1ff8	; 0x1ff8 <LCD_Clear>
     b62:	60 e0       	ldi	r22, 0x00	; 0
     b64:	80 e0       	ldi	r24, 0x00	; 0
     b66:	0e 94 5d 10 	call	0x20ba	; 0x20ba <LCD_SetCursor>
     b6a:	f8 01       	movw	r30, r16
     b6c:	80 85       	ldd	r24, Z+8	; 0x08
     b6e:	88 23       	and	r24, r24
     b70:	a9 f0       	breq	.+42     	; 0xb9c <__stack+0x33d>
     b72:	ff 92       	push	r15
     b74:	ef 92       	push	r14
     b76:	8c e8       	ldi	r24, 0x8C	; 140
     b78:	91 e0       	ldi	r25, 0x01	; 1
     b7a:	9f 93       	push	r25
     b7c:	8f 93       	push	r24
     b7e:	1f 92       	push	r1
     b80:	1f 92       	push	r1
     b82:	1f 92       	push	r1
     b84:	1f 92       	push	r1
     b86:	0e 94 dc 13 	call	0x27b8	; 0x27b8 <LCD_XYPrintf>
     b8a:	8d b7       	in	r24, 0x3d	; 61
     b8c:	9e b7       	in	r25, 0x3e	; 62
     b8e:	08 96       	adiw	r24, 0x08	; 8
     b90:	0f b6       	in	r0, 0x3f	; 63
     b92:	f8 94       	cli
     b94:	9e bf       	out	0x3e, r25	; 62
     b96:	0f be       	out	0x3f, r0	; 63
     b98:	8d bf       	out	0x3d, r24	; 61
     b9a:	10 c0       	rjmp	.+32     	; 0xbbc <__stack+0x35d>
     b9c:	82 e3       	ldi	r24, 0x32	; 50
     b9e:	91 e0       	ldi	r25, 0x01	; 1
     ba0:	9f 93       	push	r25
     ba2:	8f 93       	push	r24
     ba4:	1f 92       	push	r1
     ba6:	1f 92       	push	r1
     ba8:	1f 92       	push	r1
     baa:	1f 92       	push	r1
     bac:	0e 94 dc 13 	call	0x27b8	; 0x27b8 <LCD_XYPrintf>
     bb0:	0f 90       	pop	r0
     bb2:	0f 90       	pop	r0
     bb4:	0f 90       	pop	r0
     bb6:	0f 90       	pop	r0
     bb8:	0f 90       	pop	r0
     bba:	0f 90       	pop	r0
     bbc:	8f e0       	ldi	r24, 0x0F	; 15
     bbe:	90 e0       	ldi	r25, 0x00	; 0
     bc0:	0e 94 26 02 	call	0x44c	; 0x44c <LCDEXPLOITING_DrawLoading>
     bc4:	c9 57       	subi	r28, 0x79	; 121
     bc6:	df 4f       	sbci	r29, 0xFF	; 255
     bc8:	ce 01       	movw	r24, r28
     bca:	0e 94 97 17 	call	0x2f2e	; 0x2f2e <UART_RxString>
     bce:	0e 94 fc 0f 	call	0x1ff8	; 0x1ff8 <LCD_Clear>
     bd2:	60 e0       	ldi	r22, 0x00	; 0
     bd4:	80 e0       	ldi	r24, 0x00	; 0
     bd6:	0e 94 5d 10 	call	0x20ba	; 0x20ba <LCD_SetCursor>
     bda:	f8 01       	movw	r30, r16
     bdc:	80 85       	ldd	r24, Z+8	; 0x08
     bde:	88 23       	and	r24, r24
     be0:	a9 f0       	breq	.+42     	; 0xc0c <__stack+0x3ad>
     be2:	df 93       	push	r29
     be4:	cf 93       	push	r28
     be6:	82 e9       	ldi	r24, 0x92	; 146
     be8:	91 e0       	ldi	r25, 0x01	; 1
     bea:	9f 93       	push	r25
     bec:	8f 93       	push	r24
     bee:	1f 92       	push	r1
     bf0:	1f 92       	push	r1
     bf2:	1f 92       	push	r1
     bf4:	1f 92       	push	r1
     bf6:	0e 94 dc 13 	call	0x27b8	; 0x27b8 <LCD_XYPrintf>
     bfa:	8d b7       	in	r24, 0x3d	; 61
     bfc:	9e b7       	in	r25, 0x3e	; 62
     bfe:	08 96       	adiw	r24, 0x08	; 8
     c00:	0f b6       	in	r0, 0x3f	; 63
     c02:	f8 94       	cli
     c04:	9e bf       	out	0x3e, r25	; 62
     c06:	0f be       	out	0x3f, r0	; 63
     c08:	8d bf       	out	0x3d, r24	; 61
     c0a:	10 c0       	rjmp	.+32     	; 0xc2c <__stack+0x3cd>
     c0c:	82 e3       	ldi	r24, 0x32	; 50
     c0e:	91 e0       	ldi	r25, 0x01	; 1
     c10:	9f 93       	push	r25
     c12:	8f 93       	push	r24
     c14:	1f 92       	push	r1
     c16:	1f 92       	push	r1
     c18:	1f 92       	push	r1
     c1a:	1f 92       	push	r1
     c1c:	0e 94 dc 13 	call	0x27b8	; 0x27b8 <LCD_XYPrintf>
     c20:	0f 90       	pop	r0
     c22:	0f 90       	pop	r0
     c24:	0f 90       	pop	r0
     c26:	0f 90       	pop	r0
     c28:	0f 90       	pop	r0
     c2a:	0f 90       	pop	r0
     c2c:	80 e1       	ldi	r24, 0x10	; 16
     c2e:	90 e0       	ldi	r25, 0x00	; 0
     c30:	0e 94 26 02 	call	0x44c	; 0x44c <LCDEXPLOITING_DrawLoading>
     c34:	9f ef       	ldi	r25, 0xFF	; 255
     c36:	e9 e6       	ldi	r30, 0x69	; 105
     c38:	f8 e1       	ldi	r31, 0x18	; 24
     c3a:	91 50       	subi	r25, 0x01	; 1
     c3c:	e0 40       	sbci	r30, 0x00	; 0
     c3e:	f0 40       	sbci	r31, 0x00	; 0
     c40:	e1 f7       	brne	.-8      	; 0xc3a <__stack+0x3db>
     c42:	00 c0       	rjmp	.+0      	; 0xc44 <__stack+0x3e5>
     c44:	00 00       	nop
     c46:	0e 94 fc 0f 	call	0x1ff8	; 0x1ff8 <LCD_Clear>
     c4a:	88 e9       	ldi	r24, 0x98	; 152
     c4c:	91 e0       	ldi	r25, 0x01	; 1
     c4e:	9f 93       	push	r25
     c50:	8f 93       	push	r24
     c52:	1f 92       	push	r1
     c54:	1f 92       	push	r1
     c56:	1f 92       	push	r1
     c58:	1f 92       	push	r1
     c5a:	0e 94 dc 13 	call	0x27b8	; 0x27b8 <LCD_XYPrintf>
     c5e:	87 ea       	ldi	r24, 0xA7	; 167
     c60:	91 e0       	ldi	r25, 0x01	; 1
     c62:	9f 93       	push	r25
     c64:	8f 93       	push	r24
     c66:	1f 92       	push	r1
     c68:	81 e0       	ldi	r24, 0x01	; 1
     c6a:	8f 93       	push	r24
     c6c:	1f 92       	push	r1
     c6e:	1f 92       	push	r1
     c70:	0e 94 dc 13 	call	0x27b8	; 0x27b8 <LCD_XYPrintf>
     c74:	8d b7       	in	r24, 0x3d	; 61
     c76:	9e b7       	in	r25, 0x3e	; 62
     c78:	0c 96       	adiw	r24, 0x0c	; 12
     c7a:	0f b6       	in	r0, 0x3f	; 63
     c7c:	f8 94       	cli
     c7e:	9e bf       	out	0x3e, r25	; 62
     c80:	0f be       	out	0x3f, r0	; 63
     c82:	8d bf       	out	0x3d, r24	; 61
     c84:	dd 20       	and	r13, r13
     c86:	29 f1       	breq	.+74     	; 0xcd2 <__stack+0x473>
     c88:	8d e7       	ldi	r24, 0x7D	; 125
     c8a:	90 e0       	ldi	r25, 0x00	; 0
     c8c:	0e 94 9b 06 	call	0xd36	; 0xd36 <LedControl_OFF>
     c90:	8d e7       	ldi	r24, 0x7D	; 125
     c92:	90 e0       	ldi	r25, 0x00	; 0
     c94:	0e 94 81 06 	call	0xd02	; 0xd02 <LedControl_ON>
     c98:	8d e7       	ldi	r24, 0x7D	; 125
     c9a:	90 e0       	ldi	r25, 0x00	; 0
     c9c:	0e 94 9b 06 	call	0xd36	; 0xd36 <LedControl_OFF>
     ca0:	8d e7       	ldi	r24, 0x7D	; 125
     ca2:	90 e0       	ldi	r25, 0x00	; 0
     ca4:	0e 94 81 06 	call	0xd02	; 0xd02 <LedControl_ON>
     ca8:	8d e7       	ldi	r24, 0x7D	; 125
     caa:	90 e0       	ldi	r25, 0x00	; 0
     cac:	0e 94 9b 06 	call	0xd36	; 0xd36 <LedControl_OFF>
     cb0:	8d e7       	ldi	r24, 0x7D	; 125
     cb2:	90 e0       	ldi	r25, 0x00	; 0
     cb4:	0e 94 81 06 	call	0xd02	; 0xd02 <LedControl_ON>
     cb8:	8d e7       	ldi	r24, 0x7D	; 125
     cba:	90 e0       	ldi	r25, 0x00	; 0
     cbc:	0e 94 9b 06 	call	0xd36	; 0xd36 <LedControl_OFF>
     cc0:	8d e7       	ldi	r24, 0x7D	; 125
     cc2:	90 e0       	ldi	r25, 0x00	; 0
     cc4:	0e 94 81 06 	call	0xd02	; 0xd02 <LedControl_ON>
     cc8:	88 ec       	ldi	r24, 0xC8	; 200
     cca:	90 e0       	ldi	r25, 0x00	; 0
     ccc:	0e 94 9b 06 	call	0xd36	; 0xd36 <LedControl_OFF>
     cd0:	04 c0       	rjmp	.+8      	; 0xcda <__stack+0x47b>
     cd2:	80 eb       	ldi	r24, 0xB0	; 176
     cd4:	94 e0       	ldi	r25, 0x04	; 4
     cd6:	0e 94 97 0d 	call	0x1b2e	; 0x1b2e <DELAY_ms>
     cda:	df 91       	pop	r29
     cdc:	cf 91       	pop	r28
     cde:	1f 91       	pop	r17
     ce0:	0f 91       	pop	r16
     ce2:	ff 90       	pop	r15
     ce4:	ef 90       	pop	r14
     ce6:	df 90       	pop	r13
     ce8:	0c 94 fc 0f 	jmp	0x1ff8	; 0x1ff8 <LCD_Clear>

00000cec <PWM_SetLedBrightness>:
     cec:	85 36       	cpi	r24, 0x65	; 101
     cee:	91 05       	cpc	r25, r1
     cf0:	38 f4       	brcc	.+14     	; 0xd00 <PWM_SetLedBrightness+0x14>
     cf2:	64 e6       	ldi	r22, 0x64	; 100
     cf4:	70 e0       	ldi	r23, 0x00	; 0
     cf6:	68 1b       	sub	r22, r24
     cf8:	79 0b       	sbc	r23, r25
     cfa:	82 e0       	ldi	r24, 0x02	; 2
     cfc:	0c 94 ba 06 	jmp	0xd74	; 0xd74 <PWM_SetDutyCycle>
     d00:	08 95       	ret

00000d02 <LedControl_ON>:
     d02:	0f 93       	push	r16
     d04:	1f 93       	push	r17
     d06:	cf 93       	push	r28
     d08:	df 93       	push	r29
     d0a:	64 e6       	ldi	r22, 0x64	; 100
     d0c:	70 e0       	ldi	r23, 0x00	; 0
     d0e:	0e 94 9e 19 	call	0x333c	; 0x333c <__divmodhi4>
     d12:	8b 01       	movw	r16, r22
     d14:	c0 e0       	ldi	r28, 0x00	; 0
     d16:	d0 e0       	ldi	r29, 0x00	; 0
     d18:	ce 01       	movw	r24, r28
     d1a:	0e 94 76 06 	call	0xcec	; 0xcec <PWM_SetLedBrightness>
     d1e:	c8 01       	movw	r24, r16
     d20:	0e 94 97 0d 	call	0x1b2e	; 0x1b2e <DELAY_ms>
     d24:	21 96       	adiw	r28, 0x01	; 1
     d26:	c4 36       	cpi	r28, 0x64	; 100
     d28:	d1 05       	cpc	r29, r1
     d2a:	b1 f7       	brne	.-20     	; 0xd18 <LedControl_ON+0x16>
     d2c:	df 91       	pop	r29
     d2e:	cf 91       	pop	r28
     d30:	1f 91       	pop	r17
     d32:	0f 91       	pop	r16
     d34:	08 95       	ret

00000d36 <LedControl_OFF>:
     d36:	0f 93       	push	r16
     d38:	1f 93       	push	r17
     d3a:	cf 93       	push	r28
     d3c:	df 93       	push	r29
     d3e:	64 e6       	ldi	r22, 0x64	; 100
     d40:	70 e0       	ldi	r23, 0x00	; 0
     d42:	0e 94 9e 19 	call	0x333c	; 0x333c <__divmodhi4>
     d46:	8b 01       	movw	r16, r22
     d48:	c4 e6       	ldi	r28, 0x64	; 100
     d4a:	d0 e0       	ldi	r29, 0x00	; 0
     d4c:	ce 01       	movw	r24, r28
     d4e:	0e 94 76 06 	call	0xcec	; 0xcec <PWM_SetLedBrightness>
     d52:	c8 01       	movw	r24, r16
     d54:	0e 94 97 0d 	call	0x1b2e	; 0x1b2e <DELAY_ms>
     d58:	21 97       	sbiw	r28, 0x01	; 1
     d5a:	20 97       	sbiw	r28, 0x00	; 0
     d5c:	b9 f7       	brne	.-18     	; 0xd4c <LedControl_OFF+0x16>
     d5e:	df 91       	pop	r29
     d60:	cf 91       	pop	r28
     d62:	1f 91       	pop	r17
     d64:	0f 91       	pop	r16
     d66:	08 95       	ret

00000d68 <LedControl_set>:
     d68:	0c 94 76 06 	jmp	0xcec	; 0xcec <PWM_SetLedBrightness>

00000d6c <PWM_Init>:
     d6c:	81 b3       	in	r24, 0x11	; 17
     d6e:	80 63       	ori	r24, 0x30	; 48
     d70:	81 bb       	out	0x11, r24	; 17
     d72:	08 95       	ret

00000d74 <PWM_SetDutyCycle>:
     d74:	cf 93       	push	r28
     d76:	c8 2f       	mov	r28, r24
     d78:	70 e0       	ldi	r23, 0x00	; 0
     d7a:	80 e0       	ldi	r24, 0x00	; 0
     d7c:	90 e0       	ldi	r25, 0x00	; 0
     d7e:	0e 94 9d 1a 	call	0x353a	; 0x353a <__floatsisf>
     d82:	23 e3       	ldi	r18, 0x33	; 51
     d84:	33 e3       	ldi	r19, 0x33	; 51
     d86:	43 e2       	ldi	r20, 0x23	; 35
     d88:	50 e4       	ldi	r21, 0x40	; 64
     d8a:	0e 94 29 1b 	call	0x3652	; 0x3652 <__mulsf3>
     d8e:	0e 94 6f 1a 	call	0x34de	; 0x34de <__fixunssfsi>
     d92:	c1 30       	cpi	r28, 0x01	; 1
     d94:	31 f0       	breq	.+12     	; 0xda2 <PWM_SetDutyCycle+0x2e>
     d96:	c2 30       	cpi	r28, 0x02	; 2
     d98:	39 f4       	brne	.+14     	; 0xda8 <PWM_SetDutyCycle+0x34>
     d9a:	70 e0       	ldi	r23, 0x00	; 0
     d9c:	79 bd       	out	0x29, r23	; 41
     d9e:	68 bd       	out	0x28, r22	; 40
     da0:	03 c0       	rjmp	.+6      	; 0xda8 <PWM_SetDutyCycle+0x34>
     da2:	70 e0       	ldi	r23, 0x00	; 0
     da4:	7b bd       	out	0x2b, r23	; 43
     da6:	6a bd       	out	0x2a, r22	; 42
     da8:	cf 91       	pop	r28
     daa:	08 95       	ret

00000dac <PWM_Start>:
     dac:	8f b5       	in	r24, 0x2f	; 47
     dae:	81 60       	ori	r24, 0x01	; 1
     db0:	8f bd       	out	0x2f, r24	; 47
     db2:	8e b5       	in	r24, 0x2e	; 46
     db4:	88 60       	ori	r24, 0x08	; 8
     db6:	8e bd       	out	0x2e, r24	; 46
     db8:	8f b5       	in	r24, 0x2f	; 47
     dba:	80 6a       	ori	r24, 0xA0	; 160
     dbc:	8f bd       	out	0x2f, r24	; 47
     dbe:	8e b5       	in	r24, 0x2e	; 46
     dc0:	83 60       	ori	r24, 0x03	; 3
     dc2:	8e bd       	out	0x2e, r24	; 46
     dc4:	1b bc       	out	0x2b, r1	; 43
     dc6:	1a bc       	out	0x2a, r1	; 42
     dc8:	19 bc       	out	0x29, r1	; 41
     dca:	18 bc       	out	0x28, r1	; 40
     dcc:	08 95       	ret

00000dce <SettingsMenu_PrintBoolean>:
     dce:	1f 93       	push	r17
     dd0:	cf 93       	push	r28
     dd2:	df 93       	push	r29
     dd4:	00 d0       	rcall	.+0      	; 0xdd6 <SettingsMenu_PrintBoolean+0x8>
     dd6:	1f 92       	push	r1
     dd8:	cd b7       	in	r28, 0x3d	; 61
     dda:	de b7       	in	r29, 0x3e	; 62
     ddc:	6a 83       	std	Y+2, r22	; 0x02
     dde:	7b 83       	std	Y+3, r23	; 0x03
     de0:	89 83       	std	Y+1, r24	; 0x01
     de2:	0e 94 fc 0f 	call	0x1ff8	; 0x1ff8 <LCD_Clear>
     de6:	89 81       	ldd	r24, Y+1	; 0x01
     de8:	6a 81       	ldd	r22, Y+2	; 0x02
     dea:	7b 81       	ldd	r23, Y+3	; 0x03
     dec:	88 23       	and	r24, r24
     dee:	29 f0       	breq	.+10     	; 0xdfa <SettingsMenu_PrintBoolean+0x2c>
     df0:	7f 93       	push	r23
     df2:	6f 93       	push	r22
     df4:	81 eb       	ldi	r24, 0xB1	; 177
     df6:	91 e0       	ldi	r25, 0x01	; 1
     df8:	04 c0       	rjmp	.+8      	; 0xe02 <SettingsMenu_PrintBoolean+0x34>
     dfa:	7f 93       	push	r23
     dfc:	6f 93       	push	r22
     dfe:	88 eb       	ldi	r24, 0xB8	; 184
     e00:	91 e0       	ldi	r25, 0x01	; 1
     e02:	9f 93       	push	r25
     e04:	8f 93       	push	r24
     e06:	1f 92       	push	r1
     e08:	1f 92       	push	r1
     e0a:	1f 92       	push	r1
     e0c:	1f 92       	push	r1
     e0e:	0e 94 dc 13 	call	0x27b8	; 0x27b8 <LCD_XYPrintf>
     e12:	0f b6       	in	r0, 0x3f	; 63
     e14:	f8 94       	cli
     e16:	de bf       	out	0x3e, r29	; 62
     e18:	0f be       	out	0x3f, r0	; 63
     e1a:	cd bf       	out	0x3d, r28	; 61
     e1c:	8c eb       	ldi	r24, 0xBC	; 188
     e1e:	91 e0       	ldi	r25, 0x01	; 1
     e20:	9f 93       	push	r25
     e22:	8f 93       	push	r24
     e24:	1f 92       	push	r1
     e26:	11 e0       	ldi	r17, 0x01	; 1
     e28:	1f 93       	push	r17
     e2a:	1f 92       	push	r1
     e2c:	1f 92       	push	r1
     e2e:	0e 94 dc 13 	call	0x27b8	; 0x27b8 <LCD_XYPrintf>
     e32:	85 eb       	ldi	r24, 0xB5	; 181
     e34:	91 e0       	ldi	r25, 0x01	; 1
     e36:	9f 93       	push	r25
     e38:	8f 93       	push	r24
     e3a:	1f 92       	push	r1
     e3c:	1f 93       	push	r17
     e3e:	1f 92       	push	r1
     e40:	8e e0       	ldi	r24, 0x0E	; 14
     e42:	8f 93       	push	r24
     e44:	0e 94 dc 13 	call	0x27b8	; 0x27b8 <LCD_XYPrintf>
     e48:	0f b6       	in	r0, 0x3f	; 63
     e4a:	f8 94       	cli
     e4c:	de bf       	out	0x3e, r29	; 62
     e4e:	0f be       	out	0x3f, r0	; 63
     e50:	cd bf       	out	0x3d, r28	; 61
     e52:	0f 90       	pop	r0
     e54:	0f 90       	pop	r0
     e56:	0f 90       	pop	r0
     e58:	df 91       	pop	r29
     e5a:	cf 91       	pop	r28
     e5c:	1f 91       	pop	r17
     e5e:	08 95       	ret

00000e60 <SettingsMenu_PrintValue>:
     e60:	1f 93       	push	r17
     e62:	cf 93       	push	r28
     e64:	df 93       	push	r29
     e66:	00 d0       	rcall	.+0      	; 0xe68 <SettingsMenu_PrintValue+0x8>
     e68:	00 d0       	rcall	.+0      	; 0xe6a <SettingsMenu_PrintValue+0xa>
     e6a:	cd b7       	in	r28, 0x3d	; 61
     e6c:	de b7       	in	r29, 0x3e	; 62
     e6e:	6b 83       	std	Y+3, r22	; 0x03
     e70:	7c 83       	std	Y+4, r23	; 0x04
     e72:	89 83       	std	Y+1, r24	; 0x01
     e74:	9a 83       	std	Y+2, r25	; 0x02
     e76:	0e 94 fc 0f 	call	0x1ff8	; 0x1ff8 <LCD_Clear>
     e7a:	9a 81       	ldd	r25, Y+2	; 0x02
     e7c:	9f 93       	push	r25
     e7e:	89 81       	ldd	r24, Y+1	; 0x01
     e80:	8f 93       	push	r24
     e82:	7c 81       	ldd	r23, Y+4	; 0x04
     e84:	7f 93       	push	r23
     e86:	6b 81       	ldd	r22, Y+3	; 0x03
     e88:	6f 93       	push	r22
     e8a:	80 ec       	ldi	r24, 0xC0	; 192
     e8c:	91 e0       	ldi	r25, 0x01	; 1
     e8e:	9f 93       	push	r25
     e90:	8f 93       	push	r24
     e92:	1f 92       	push	r1
     e94:	1f 92       	push	r1
     e96:	1f 92       	push	r1
     e98:	1f 92       	push	r1
     e9a:	0e 94 dc 13 	call	0x27b8	; 0x27b8 <LCD_XYPrintf>
     e9e:	87 ec       	ldi	r24, 0xC7	; 199
     ea0:	91 e0       	ldi	r25, 0x01	; 1
     ea2:	9f 93       	push	r25
     ea4:	8f 93       	push	r24
     ea6:	1f 92       	push	r1
     ea8:	11 e0       	ldi	r17, 0x01	; 1
     eaa:	1f 93       	push	r17
     eac:	1f 92       	push	r1
     eae:	1f 92       	push	r1
     eb0:	0e 94 dc 13 	call	0x27b8	; 0x27b8 <LCD_XYPrintf>
     eb4:	89 ec       	ldi	r24, 0xC9	; 201
     eb6:	91 e0       	ldi	r25, 0x01	; 1
     eb8:	9f 93       	push	r25
     eba:	8f 93       	push	r24
     ebc:	1f 92       	push	r1
     ebe:	1f 93       	push	r17
     ec0:	1f 92       	push	r1
     ec2:	8f e0       	ldi	r24, 0x0F	; 15
     ec4:	8f 93       	push	r24
     ec6:	0e 94 dc 13 	call	0x27b8	; 0x27b8 <LCD_XYPrintf>
     eca:	0f b6       	in	r0, 0x3f	; 63
     ecc:	f8 94       	cli
     ece:	de bf       	out	0x3e, r29	; 62
     ed0:	0f be       	out	0x3f, r0	; 63
     ed2:	cd bf       	out	0x3d, r28	; 61
     ed4:	0f 90       	pop	r0
     ed6:	0f 90       	pop	r0
     ed8:	0f 90       	pop	r0
     eda:	0f 90       	pop	r0
     edc:	df 91       	pop	r29
     ede:	cf 91       	pop	r28
     ee0:	1f 91       	pop	r17
     ee2:	08 95       	ret

00000ee4 <SettingsMenu_PrintLabel>:
     ee4:	ef 92       	push	r14
     ee6:	ff 92       	push	r15
     ee8:	1f 93       	push	r17
     eea:	cf 93       	push	r28
     eec:	df 93       	push	r29
     eee:	00 d0       	rcall	.+0      	; 0xef0 <SettingsMenu_PrintLabel+0xc>
     ef0:	cd b7       	in	r28, 0x3d	; 61
     ef2:	de b7       	in	r29, 0x3e	; 62
     ef4:	89 83       	std	Y+1, r24	; 0x01
     ef6:	9a 83       	std	Y+2, r25	; 0x02
     ef8:	0e 94 fc 0f 	call	0x1ff8	; 0x1ff8 <LCD_Clear>
     efc:	9a 81       	ldd	r25, Y+2	; 0x02
     efe:	9f 93       	push	r25
     f00:	89 81       	ldd	r24, Y+1	; 0x01
     f02:	8f 93       	push	r24
     f04:	8f e2       	ldi	r24, 0x2F	; 47
     f06:	91 e0       	ldi	r25, 0x01	; 1
     f08:	9f 93       	push	r25
     f0a:	8f 93       	push	r24
     f0c:	1f 92       	push	r1
     f0e:	1f 92       	push	r1
     f10:	1f 92       	push	r1
     f12:	1f 92       	push	r1
     f14:	0e 94 dc 13 	call	0x27b8	; 0x27b8 <LCD_XYPrintf>
     f18:	8b ec       	ldi	r24, 0xCB	; 203
     f1a:	e8 2e       	mov	r14, r24
     f1c:	81 e0       	ldi	r24, 0x01	; 1
     f1e:	f8 2e       	mov	r15, r24
     f20:	ff 92       	push	r15
     f22:	ef 92       	push	r14
     f24:	1f 92       	push	r1
     f26:	11 e0       	ldi	r17, 0x01	; 1
     f28:	1f 93       	push	r17
     f2a:	1f 92       	push	r1
     f2c:	1f 92       	push	r1
     f2e:	0e 94 dc 13 	call	0x27b8	; 0x27b8 <LCD_XYPrintf>
     f32:	ff 92       	push	r15
     f34:	ef 92       	push	r14
     f36:	1f 92       	push	r1
     f38:	1f 93       	push	r17
     f3a:	1f 92       	push	r1
     f3c:	8e e0       	ldi	r24, 0x0E	; 14
     f3e:	8f 93       	push	r24
     f40:	0e 94 dc 13 	call	0x27b8	; 0x27b8 <LCD_XYPrintf>
     f44:	0f b6       	in	r0, 0x3f	; 63
     f46:	f8 94       	cli
     f48:	de bf       	out	0x3e, r29	; 62
     f4a:	0f be       	out	0x3f, r0	; 63
     f4c:	cd bf       	out	0x3d, r28	; 61
     f4e:	0f 90       	pop	r0
     f50:	0f 90       	pop	r0
     f52:	df 91       	pop	r29
     f54:	cf 91       	pop	r28
     f56:	1f 91       	pop	r17
     f58:	ff 90       	pop	r15
     f5a:	ef 90       	pop	r14
     f5c:	08 95       	ret

00000f5e <SettingsMenu_pressedButton>:
     f5e:	7f 92       	push	r7
     f60:	8f 92       	push	r8
     f62:	9f 92       	push	r9
     f64:	af 92       	push	r10
     f66:	bf 92       	push	r11
     f68:	cf 92       	push	r12
     f6a:	df 92       	push	r13
     f6c:	ef 92       	push	r14
     f6e:	ff 92       	push	r15
     f70:	0f 93       	push	r16
     f72:	1f 93       	push	r17
     f74:	cf 93       	push	r28
     f76:	df 93       	push	r29
     f78:	00 d0       	rcall	.+0      	; 0xf7a <SettingsMenu_pressedButton+0x1c>
     f7a:	cd b7       	in	r28, 0x3d	; 61
     f7c:	de b7       	in	r29, 0x3e	; 62
     f7e:	8c 01       	movw	r16, r24
     f80:	7b 01       	movw	r14, r22
     f82:	1a 82       	std	Y+2, r1	; 0x02
     f84:	19 82       	std	Y+1, r1	; 0x01
     f86:	34 e6       	ldi	r19, 0x64	; 100
     f88:	c3 2e       	mov	r12, r19
     f8a:	d1 2c       	mov	r13, r1
     f8c:	77 24       	eor	r7, r7
     f8e:	73 94       	inc	r7
     f90:	4a ef       	ldi	r20, 0xFA	; 250
     f92:	a4 2e       	mov	r10, r20
     f94:	b1 2c       	mov	r11, r1
     f96:	52 e3       	ldi	r21, 0x32	; 50
     f98:	85 2e       	mov	r8, r21
     f9a:	91 2c       	mov	r9, r1
     f9c:	f7 01       	movw	r30, r14
     f9e:	80 81       	ld	r24, Z
     fa0:	91 81       	ldd	r25, Z+1	; 0x01
     fa2:	01 97       	sbiw	r24, 0x01	; 1
     fa4:	c9 f5       	brne	.+114    	; 0x1018 <SettingsMenu_pressedButton+0xba>
     fa6:	b1 99       	sbic	0x16, 1	; 22
     fa8:	03 c0       	rjmp	.+6      	; 0xfb0 <SettingsMenu_pressedButton+0x52>
     faa:	86 e0       	ldi	r24, 0x06	; 6
     fac:	90 e0       	ldi	r25, 0x00	; 0
     fae:	4d c1       	rjmp	.+666    	; 0x124a <SettingsMenu_pressedButton+0x2ec>
     fb0:	b0 99       	sbic	0x16, 0	; 22
     fb2:	03 c0       	rjmp	.+6      	; 0xfba <SettingsMenu_pressedButton+0x5c>
     fb4:	82 e0       	ldi	r24, 0x02	; 2
     fb6:	90 e0       	ldi	r25, 0x00	; 0
     fb8:	47 c1       	rjmp	.+654    	; 0x1248 <SettingsMenu_pressedButton+0x2ea>
     fba:	b2 9b       	sbis	0x16, 2	; 22
     fbc:	3e c1       	rjmp	.+636    	; 0x123a <SettingsMenu_pressedButton+0x2dc>
     fbe:	b3 9b       	sbis	0x16, 3	; 22
     fc0:	41 c1       	rjmp	.+642    	; 0x1244 <SettingsMenu_pressedButton+0x2e6>
     fc2:	b4 9b       	sbis	0x16, 4	; 22
     fc4:	02 c0       	rjmp	.+4      	; 0xfca <SettingsMenu_pressedButton+0x6c>
     fc6:	b5 99       	sbic	0x16, 5	; 22
     fc8:	27 c0       	rjmp	.+78     	; 0x1018 <SettingsMenu_pressedButton+0xba>
     fca:	80 e0       	ldi	r24, 0x00	; 0
     fcc:	90 e0       	ldi	r25, 0x00	; 0
     fce:	0e 94 9b 06 	call	0xd36	; 0xd36 <LedControl_OFF>
     fd2:	0e 94 fc 0f 	call	0x1ff8	; 0x1ff8 <LCD_Clear>
     fd6:	80 e0       	ldi	r24, 0x00	; 0
     fd8:	90 e0       	ldi	r25, 0x00	; 0
     fda:	0e 94 cc 00 	call	0x198	; 0x198 <LCDEXPLOITING_SetLctBrightness>
     fde:	88 ee       	ldi	r24, 0xE8	; 232
     fe0:	93 e0       	ldi	r25, 0x03	; 3
     fe2:	0e 94 97 0d 	call	0x1b2e	; 0x1b2e <DELAY_ms>
     fe6:	b2 9b       	sbis	0x16, 2	; 22
     fe8:	0a c0       	rjmp	.+20     	; 0xffe <SettingsMenu_pressedButton+0xa0>
     fea:	b3 9b       	sbis	0x16, 3	; 22
     fec:	08 c0       	rjmp	.+16     	; 0xffe <SettingsMenu_pressedButton+0xa0>
     fee:	b4 9b       	sbis	0x16, 4	; 22
     ff0:	06 c0       	rjmp	.+12     	; 0xffe <SettingsMenu_pressedButton+0xa0>
     ff2:	b5 9b       	sbis	0x16, 5	; 22
     ff4:	04 c0       	rjmp	.+8      	; 0xffe <SettingsMenu_pressedButton+0xa0>
     ff6:	b1 9b       	sbis	0x16, 1	; 22
     ff8:	02 c0       	rjmp	.+4      	; 0xffe <SettingsMenu_pressedButton+0xa0>
     ffa:	b0 99       	sbic	0x16, 0	; 22
     ffc:	f4 cf       	rjmp	.-24     	; 0xfe6 <SettingsMenu_pressedButton+0x88>
     ffe:	84 ef       	ldi	r24, 0xF4	; 244
    1000:	91 e0       	ldi	r25, 0x01	; 1
    1002:	0e 94 97 0d 	call	0x1b2e	; 0x1b2e <DELAY_ms>
    1006:	f8 01       	movw	r30, r16
    1008:	85 81       	ldd	r24, Z+5	; 0x05
    100a:	96 81       	ldd	r25, Z+6	; 0x06
    100c:	0e 94 cc 00 	call	0x198	; 0x198 <LCDEXPLOITING_SetLctBrightness>
    1010:	8e ec       	ldi	r24, 0xCE	; 206
    1012:	91 e0       	ldi	r25, 0x01	; 1
    1014:	0e 94 72 07 	call	0xee4	; 0xee4 <SettingsMenu_PrintLabel>
    1018:	f7 01       	movw	r30, r14
    101a:	80 81       	ld	r24, Z
    101c:	91 81       	ldd	r25, Z+1	; 0x01
    101e:	02 97       	sbiw	r24, 0x02	; 2
    1020:	09 f0       	breq	.+2      	; 0x1024 <SettingsMenu_pressedButton+0xc6>
    1022:	51 c0       	rjmp	.+162    	; 0x10c6 <SettingsMenu_pressedButton+0x168>
    1024:	b1 99       	sbic	0x16, 1	; 22
    1026:	03 c0       	rjmp	.+6      	; 0x102e <SettingsMenu_pressedButton+0xd0>
    1028:	81 e0       	ldi	r24, 0x01	; 1
    102a:	90 e0       	ldi	r25, 0x00	; 0
    102c:	0e c1       	rjmp	.+540    	; 0x124a <SettingsMenu_pressedButton+0x2ec>
    102e:	b0 99       	sbic	0x16, 0	; 22
    1030:	03 c0       	rjmp	.+6      	; 0x1038 <SettingsMenu_pressedButton+0xda>
    1032:	83 e0       	ldi	r24, 0x03	; 3
    1034:	90 e0       	ldi	r25, 0x00	; 0
    1036:	08 c1       	rjmp	.+528    	; 0x1248 <SettingsMenu_pressedButton+0x2ea>
    1038:	b2 9b       	sbis	0x16, 2	; 22
    103a:	ff c0       	rjmp	.+510    	; 0x123a <SettingsMenu_pressedButton+0x2dc>
    103c:	b3 9b       	sbis	0x16, 3	; 22
    103e:	02 c1       	rjmp	.+516    	; 0x1244 <SettingsMenu_pressedButton+0x2e6>
    1040:	b4 99       	sbic	0x16, 4	; 22
    1042:	1f c0       	rjmp	.+62     	; 0x1082 <SettingsMenu_pressedButton+0x124>
    1044:	f8 01       	movw	r30, r16
    1046:	85 81       	ldd	r24, Z+5	; 0x05
    1048:	96 81       	ldd	r25, Z+6	; 0x06
    104a:	18 16       	cp	r1, r24
    104c:	19 06       	cpc	r1, r25
    104e:	cc f4       	brge	.+50     	; 0x1082 <SettingsMenu_pressedButton+0x124>
    1050:	0a 97       	sbiw	r24, 0x0a	; 10
    1052:	97 fd       	sbrc	r25, 7
    1054:	03 c0       	rjmp	.+6      	; 0x105c <SettingsMenu_pressedButton+0xfe>
    1056:	96 83       	std	Z+6, r25	; 0x06
    1058:	85 83       	std	Z+5, r24	; 0x05
    105a:	03 c0       	rjmp	.+6      	; 0x1062 <SettingsMenu_pressedButton+0x104>
    105c:	f8 01       	movw	r30, r16
    105e:	16 82       	std	Z+6, r1	; 0x06
    1060:	15 82       	std	Z+5, r1	; 0x05
    1062:	f8 01       	movw	r30, r16
    1064:	85 81       	ldd	r24, Z+5	; 0x05
    1066:	96 81       	ldd	r25, Z+6	; 0x06
    1068:	0e 94 cc 00 	call	0x198	; 0x198 <LCDEXPLOITING_SetLctBrightness>
    106c:	66 ed       	ldi	r22, 0xD6	; 214
    106e:	71 e0       	ldi	r23, 0x01	; 1
    1070:	f8 01       	movw	r30, r16
    1072:	85 81       	ldd	r24, Z+5	; 0x05
    1074:	96 81       	ldd	r25, Z+6	; 0x06
    1076:	0e 94 30 07 	call	0xe60	; 0xe60 <SettingsMenu_PrintValue>
    107a:	88 ec       	ldi	r24, 0xC8	; 200
    107c:	90 e0       	ldi	r25, 0x00	; 0
    107e:	0e 94 97 0d 	call	0x1b2e	; 0x1b2e <DELAY_ms>
    1082:	b5 99       	sbic	0x16, 5	; 22
    1084:	20 c0       	rjmp	.+64     	; 0x10c6 <SettingsMenu_pressedButton+0x168>
    1086:	f8 01       	movw	r30, r16
    1088:	85 81       	ldd	r24, Z+5	; 0x05
    108a:	96 81       	ldd	r25, Z+6	; 0x06
    108c:	84 36       	cpi	r24, 0x64	; 100
    108e:	91 05       	cpc	r25, r1
    1090:	d4 f4       	brge	.+52     	; 0x10c6 <SettingsMenu_pressedButton+0x168>
    1092:	0a 96       	adiw	r24, 0x0a	; 10
    1094:	85 36       	cpi	r24, 0x65	; 101
    1096:	91 05       	cpc	r25, r1
    1098:	1c f4       	brge	.+6      	; 0x10a0 <SettingsMenu_pressedButton+0x142>
    109a:	96 83       	std	Z+6, r25	; 0x06
    109c:	85 83       	std	Z+5, r24	; 0x05
    109e:	03 c0       	rjmp	.+6      	; 0x10a6 <SettingsMenu_pressedButton+0x148>
    10a0:	f8 01       	movw	r30, r16
    10a2:	d6 82       	std	Z+6, r13	; 0x06
    10a4:	c5 82       	std	Z+5, r12	; 0x05
    10a6:	f8 01       	movw	r30, r16
    10a8:	85 81       	ldd	r24, Z+5	; 0x05
    10aa:	96 81       	ldd	r25, Z+6	; 0x06
    10ac:	0e 94 cc 00 	call	0x198	; 0x198 <LCDEXPLOITING_SetLctBrightness>
    10b0:	66 ed       	ldi	r22, 0xD6	; 214
    10b2:	71 e0       	ldi	r23, 0x01	; 1
    10b4:	f8 01       	movw	r30, r16
    10b6:	85 81       	ldd	r24, Z+5	; 0x05
    10b8:	96 81       	ldd	r25, Z+6	; 0x06
    10ba:	0e 94 30 07 	call	0xe60	; 0xe60 <SettingsMenu_PrintValue>
    10be:	88 ec       	ldi	r24, 0xC8	; 200
    10c0:	90 e0       	ldi	r25, 0x00	; 0
    10c2:	0e 94 97 0d 	call	0x1b2e	; 0x1b2e <DELAY_ms>
    10c6:	f7 01       	movw	r30, r14
    10c8:	80 81       	ld	r24, Z
    10ca:	91 81       	ldd	r25, Z+1	; 0x01
    10cc:	03 97       	sbiw	r24, 0x03	; 3
    10ce:	41 f5       	brne	.+80     	; 0x1120 <SettingsMenu_pressedButton+0x1c2>
    10d0:	b1 99       	sbic	0x16, 1	; 22
    10d2:	03 c0       	rjmp	.+6      	; 0x10da <SettingsMenu_pressedButton+0x17c>
    10d4:	82 e0       	ldi	r24, 0x02	; 2
    10d6:	90 e0       	ldi	r25, 0x00	; 0
    10d8:	b8 c0       	rjmp	.+368    	; 0x124a <SettingsMenu_pressedButton+0x2ec>
    10da:	b0 99       	sbic	0x16, 0	; 22
    10dc:	03 c0       	rjmp	.+6      	; 0x10e4 <SettingsMenu_pressedButton+0x186>
    10de:	84 e0       	ldi	r24, 0x04	; 4
    10e0:	90 e0       	ldi	r25, 0x00	; 0
    10e2:	b2 c0       	rjmp	.+356    	; 0x1248 <SettingsMenu_pressedButton+0x2ea>
    10e4:	b2 9b       	sbis	0x16, 2	; 22
    10e6:	a9 c0       	rjmp	.+338    	; 0x123a <SettingsMenu_pressedButton+0x2dc>
    10e8:	b3 9b       	sbis	0x16, 3	; 22
    10ea:	ac c0       	rjmp	.+344    	; 0x1244 <SettingsMenu_pressedButton+0x2e6>
    10ec:	b4 99       	sbic	0x16, 4	; 22
    10ee:	0b c0       	rjmp	.+22     	; 0x1106 <SettingsMenu_pressedButton+0x1a8>
    10f0:	f8 01       	movw	r30, r16
    10f2:	17 82       	std	Z+7, r1	; 0x07
    10f4:	61 ee       	ldi	r22, 0xE1	; 225
    10f6:	71 e0       	ldi	r23, 0x01	; 1
    10f8:	80 e0       	ldi	r24, 0x00	; 0
    10fa:	0e 94 e7 06 	call	0xdce	; 0xdce <SettingsMenu_PrintBoolean>
    10fe:	88 ec       	ldi	r24, 0xC8	; 200
    1100:	90 e0       	ldi	r25, 0x00	; 0
    1102:	0e 94 97 0d 	call	0x1b2e	; 0x1b2e <DELAY_ms>
    1106:	b5 99       	sbic	0x16, 5	; 22
    1108:	0b c0       	rjmp	.+22     	; 0x1120 <SettingsMenu_pressedButton+0x1c2>
    110a:	f8 01       	movw	r30, r16
    110c:	77 82       	std	Z+7, r7	; 0x07
    110e:	61 ee       	ldi	r22, 0xE1	; 225
    1110:	71 e0       	ldi	r23, 0x01	; 1
    1112:	81 e0       	ldi	r24, 0x01	; 1
    1114:	0e 94 e7 06 	call	0xdce	; 0xdce <SettingsMenu_PrintBoolean>
    1118:	88 ec       	ldi	r24, 0xC8	; 200
    111a:	90 e0       	ldi	r25, 0x00	; 0
    111c:	0e 94 97 0d 	call	0x1b2e	; 0x1b2e <DELAY_ms>
    1120:	f7 01       	movw	r30, r14
    1122:	80 81       	ld	r24, Z
    1124:	91 81       	ldd	r25, Z+1	; 0x01
    1126:	04 97       	sbiw	r24, 0x04	; 4
    1128:	09 f0       	breq	.+2      	; 0x112c <SettingsMenu_pressedButton+0x1ce>
    112a:	48 c0       	rjmp	.+144    	; 0x11bc <SettingsMenu_pressedButton+0x25e>
    112c:	b1 99       	sbic	0x16, 1	; 22
    112e:	03 c0       	rjmp	.+6      	; 0x1136 <SettingsMenu_pressedButton+0x1d8>
    1130:	83 e0       	ldi	r24, 0x03	; 3
    1132:	90 e0       	ldi	r25, 0x00	; 0
    1134:	8a c0       	rjmp	.+276    	; 0x124a <SettingsMenu_pressedButton+0x2ec>
    1136:	b0 99       	sbic	0x16, 0	; 22
    1138:	03 c0       	rjmp	.+6      	; 0x1140 <SettingsMenu_pressedButton+0x1e2>
    113a:	85 e0       	ldi	r24, 0x05	; 5
    113c:	90 e0       	ldi	r25, 0x00	; 0
    113e:	84 c0       	rjmp	.+264    	; 0x1248 <SettingsMenu_pressedButton+0x2ea>
    1140:	b2 9b       	sbis	0x16, 2	; 22
    1142:	7b c0       	rjmp	.+246    	; 0x123a <SettingsMenu_pressedButton+0x2dc>
    1144:	b3 9b       	sbis	0x16, 3	; 22
    1146:	7e c0       	rjmp	.+252    	; 0x1244 <SettingsMenu_pressedButton+0x2e6>
    1148:	b4 99       	sbic	0x16, 4	; 22
    114a:	1b c0       	rjmp	.+54     	; 0x1182 <SettingsMenu_pressedButton+0x224>
    114c:	f8 01       	movw	r30, r16
    114e:	81 85       	ldd	r24, Z+9	; 0x09
    1150:	92 85       	ldd	r25, Z+10	; 0x0a
    1152:	83 33       	cpi	r24, 0x33	; 51
    1154:	91 05       	cpc	r25, r1
    1156:	ac f0       	brlt	.+42     	; 0x1182 <SettingsMenu_pressedButton+0x224>
    1158:	49 97       	sbiw	r24, 0x19	; 25
    115a:	82 33       	cpi	r24, 0x32	; 50
    115c:	91 05       	cpc	r25, r1
    115e:	1c f0       	brlt	.+6      	; 0x1166 <SettingsMenu_pressedButton+0x208>
    1160:	92 87       	std	Z+10, r25	; 0x0a
    1162:	81 87       	std	Z+9, r24	; 0x09
    1164:	03 c0       	rjmp	.+6      	; 0x116c <SettingsMenu_pressedButton+0x20e>
    1166:	f8 01       	movw	r30, r16
    1168:	92 86       	std	Z+10, r9	; 0x0a
    116a:	81 86       	std	Z+9, r8	; 0x09
    116c:	6a ee       	ldi	r22, 0xEA	; 234
    116e:	71 e0       	ldi	r23, 0x01	; 1
    1170:	f8 01       	movw	r30, r16
    1172:	81 85       	ldd	r24, Z+9	; 0x09
    1174:	92 85       	ldd	r25, Z+10	; 0x0a
    1176:	0e 94 30 07 	call	0xe60	; 0xe60 <SettingsMenu_PrintValue>
    117a:	88 ec       	ldi	r24, 0xC8	; 200
    117c:	90 e0       	ldi	r25, 0x00	; 0
    117e:	0e 94 97 0d 	call	0x1b2e	; 0x1b2e <DELAY_ms>
    1182:	b5 99       	sbic	0x16, 5	; 22
    1184:	1b c0       	rjmp	.+54     	; 0x11bc <SettingsMenu_pressedButton+0x25e>
    1186:	f8 01       	movw	r30, r16
    1188:	81 85       	ldd	r24, Z+9	; 0x09
    118a:	92 85       	ldd	r25, Z+10	; 0x0a
    118c:	8a 3f       	cpi	r24, 0xFA	; 250
    118e:	91 05       	cpc	r25, r1
    1190:	ac f4       	brge	.+42     	; 0x11bc <SettingsMenu_pressedButton+0x25e>
    1192:	49 96       	adiw	r24, 0x19	; 25
    1194:	8b 3f       	cpi	r24, 0xFB	; 251
    1196:	91 05       	cpc	r25, r1
    1198:	1c f4       	brge	.+6      	; 0x11a0 <SettingsMenu_pressedButton+0x242>
    119a:	92 87       	std	Z+10, r25	; 0x0a
    119c:	81 87       	std	Z+9, r24	; 0x09
    119e:	03 c0       	rjmp	.+6      	; 0x11a6 <SettingsMenu_pressedButton+0x248>
    11a0:	f8 01       	movw	r30, r16
    11a2:	b2 86       	std	Z+10, r11	; 0x0a
    11a4:	a1 86       	std	Z+9, r10	; 0x09
    11a6:	6a ee       	ldi	r22, 0xEA	; 234
    11a8:	71 e0       	ldi	r23, 0x01	; 1
    11aa:	f8 01       	movw	r30, r16
    11ac:	81 85       	ldd	r24, Z+9	; 0x09
    11ae:	92 85       	ldd	r25, Z+10	; 0x0a
    11b0:	0e 94 30 07 	call	0xe60	; 0xe60 <SettingsMenu_PrintValue>
    11b4:	88 ec       	ldi	r24, 0xC8	; 200
    11b6:	90 e0       	ldi	r25, 0x00	; 0
    11b8:	0e 94 97 0d 	call	0x1b2e	; 0x1b2e <DELAY_ms>
    11bc:	f7 01       	movw	r30, r14
    11be:	80 81       	ld	r24, Z
    11c0:	91 81       	ldd	r25, Z+1	; 0x01
    11c2:	05 97       	sbiw	r24, 0x05	; 5
    11c4:	41 f5       	brne	.+80     	; 0x1216 <SettingsMenu_pressedButton+0x2b8>
    11c6:	b1 99       	sbic	0x16, 1	; 22
    11c8:	03 c0       	rjmp	.+6      	; 0x11d0 <SettingsMenu_pressedButton+0x272>
    11ca:	84 e0       	ldi	r24, 0x04	; 4
    11cc:	90 e0       	ldi	r25, 0x00	; 0
    11ce:	3d c0       	rjmp	.+122    	; 0x124a <SettingsMenu_pressedButton+0x2ec>
    11d0:	b0 99       	sbic	0x16, 0	; 22
    11d2:	03 c0       	rjmp	.+6      	; 0x11da <SettingsMenu_pressedButton+0x27c>
    11d4:	86 e0       	ldi	r24, 0x06	; 6
    11d6:	90 e0       	ldi	r25, 0x00	; 0
    11d8:	37 c0       	rjmp	.+110    	; 0x1248 <SettingsMenu_pressedButton+0x2ea>
    11da:	b2 9b       	sbis	0x16, 2	; 22
    11dc:	2e c0       	rjmp	.+92     	; 0x123a <SettingsMenu_pressedButton+0x2dc>
    11de:	b3 9b       	sbis	0x16, 3	; 22
    11e0:	31 c0       	rjmp	.+98     	; 0x1244 <SettingsMenu_pressedButton+0x2e6>
    11e2:	b4 99       	sbic	0x16, 4	; 22
    11e4:	0b c0       	rjmp	.+22     	; 0x11fc <SettingsMenu_pressedButton+0x29e>
    11e6:	f8 01       	movw	r30, r16
    11e8:	10 86       	std	Z+8, r1	; 0x08
    11ea:	65 ef       	ldi	r22, 0xF5	; 245
    11ec:	71 e0       	ldi	r23, 0x01	; 1
    11ee:	80 e0       	ldi	r24, 0x00	; 0
    11f0:	0e 94 e7 06 	call	0xdce	; 0xdce <SettingsMenu_PrintBoolean>
    11f4:	88 ec       	ldi	r24, 0xC8	; 200
    11f6:	90 e0       	ldi	r25, 0x00	; 0
    11f8:	0e 94 97 0d 	call	0x1b2e	; 0x1b2e <DELAY_ms>
    11fc:	b5 99       	sbic	0x16, 5	; 22
    11fe:	0b c0       	rjmp	.+22     	; 0x1216 <SettingsMenu_pressedButton+0x2b8>
    1200:	f8 01       	movw	r30, r16
    1202:	70 86       	std	Z+8, r7	; 0x08
    1204:	65 ef       	ldi	r22, 0xF5	; 245
    1206:	71 e0       	ldi	r23, 0x01	; 1
    1208:	81 e0       	ldi	r24, 0x01	; 1
    120a:	0e 94 e7 06 	call	0xdce	; 0xdce <SettingsMenu_PrintBoolean>
    120e:	88 ec       	ldi	r24, 0xC8	; 200
    1210:	90 e0       	ldi	r25, 0x00	; 0
    1212:	0e 94 97 0d 	call	0x1b2e	; 0x1b2e <DELAY_ms>
    1216:	f7 01       	movw	r30, r14
    1218:	80 81       	ld	r24, Z
    121a:	91 81       	ldd	r25, Z+1	; 0x01
    121c:	06 97       	sbiw	r24, 0x06	; 6
    121e:	09 f0       	breq	.+2      	; 0x1222 <SettingsMenu_pressedButton+0x2c4>
    1220:	49 c0       	rjmp	.+146    	; 0x12b4 <SettingsMenu_pressedButton+0x356>
    1222:	b1 99       	sbic	0x16, 1	; 22
    1224:	03 c0       	rjmp	.+6      	; 0x122c <SettingsMenu_pressedButton+0x2ce>
    1226:	85 e0       	ldi	r24, 0x05	; 5
    1228:	90 e0       	ldi	r25, 0x00	; 0
    122a:	0f c0       	rjmp	.+30     	; 0x124a <SettingsMenu_pressedButton+0x2ec>
    122c:	b0 99       	sbic	0x16, 0	; 22
    122e:	03 c0       	rjmp	.+6      	; 0x1236 <SettingsMenu_pressedButton+0x2d8>
    1230:	81 e0       	ldi	r24, 0x01	; 1
    1232:	90 e0       	ldi	r25, 0x00	; 0
    1234:	09 c0       	rjmp	.+18     	; 0x1248 <SettingsMenu_pressedButton+0x2ea>
    1236:	b2 99       	sbic	0x16, 2	; 22
    1238:	03 c0       	rjmp	.+6      	; 0x1240 <SettingsMenu_pressedButton+0x2e2>
    123a:	86 e9       	ldi	r24, 0x96	; 150
    123c:	90 e0       	ldi	r25, 0x00	; 0
    123e:	04 c0       	rjmp	.+8      	; 0x1248 <SettingsMenu_pressedButton+0x2ea>
    1240:	b3 99       	sbic	0x16, 3	; 22
    1242:	1e c0       	rjmp	.+60     	; 0x1280 <SettingsMenu_pressedButton+0x322>
    1244:	86 ef       	ldi	r24, 0xF6	; 246
    1246:	9f ef       	ldi	r25, 0xFF	; 255
    1248:	f7 01       	movw	r30, r14
    124a:	91 83       	std	Z+1, r25	; 0x01
    124c:	80 83       	st	Z, r24
    124e:	f8 01       	movw	r30, r16
    1250:	81 85       	ldd	r24, Z+9	; 0x09
    1252:	92 85       	ldd	r25, Z+10	; 0x0a
    1254:	88 0f       	add	r24, r24
    1256:	99 1f       	adc	r25, r25
    1258:	88 0f       	add	r24, r24
    125a:	99 1f       	adc	r25, r25
    125c:	0e 94 97 0d 	call	0x1b2e	; 0x1b2e <DELAY_ms>
    1260:	0f 90       	pop	r0
    1262:	0f 90       	pop	r0
    1264:	df 91       	pop	r29
    1266:	cf 91       	pop	r28
    1268:	1f 91       	pop	r17
    126a:	0f 91       	pop	r16
    126c:	ff 90       	pop	r15
    126e:	ef 90       	pop	r14
    1270:	df 90       	pop	r13
    1272:	cf 90       	pop	r12
    1274:	bf 90       	pop	r11
    1276:	af 90       	pop	r10
    1278:	9f 90       	pop	r9
    127a:	8f 90       	pop	r8
    127c:	7f 90       	pop	r7
    127e:	08 95       	ret
    1280:	b4 99       	sbic	0x16, 4	; 22
    1282:	0b c0       	rjmp	.+22     	; 0x129a <SettingsMenu_pressedButton+0x33c>
    1284:	f8 01       	movw	r30, r16
    1286:	13 86       	std	Z+11, r1	; 0x0b
    1288:	60 e0       	ldi	r22, 0x00	; 0
    128a:	72 e0       	ldi	r23, 0x02	; 2
    128c:	80 e0       	ldi	r24, 0x00	; 0
    128e:	0e 94 e7 06 	call	0xdce	; 0xdce <SettingsMenu_PrintBoolean>
    1292:	88 ec       	ldi	r24, 0xC8	; 200
    1294:	90 e0       	ldi	r25, 0x00	; 0
    1296:	0e 94 97 0d 	call	0x1b2e	; 0x1b2e <DELAY_ms>
    129a:	b5 99       	sbic	0x16, 5	; 22
    129c:	0b c0       	rjmp	.+22     	; 0x12b4 <SettingsMenu_pressedButton+0x356>
    129e:	f8 01       	movw	r30, r16
    12a0:	73 86       	std	Z+11, r7	; 0x0b
    12a2:	60 e0       	ldi	r22, 0x00	; 0
    12a4:	72 e0       	ldi	r23, 0x02	; 2
    12a6:	81 e0       	ldi	r24, 0x01	; 1
    12a8:	0e 94 e7 06 	call	0xdce	; 0xdce <SettingsMenu_PrintBoolean>
    12ac:	88 ec       	ldi	r24, 0xC8	; 200
    12ae:	90 e0       	ldi	r25, 0x00	; 0
    12b0:	0e 94 97 0d 	call	0x1b2e	; 0x1b2e <DELAY_ms>
    12b4:	64 ef       	ldi	r22, 0xF4	; 244
    12b6:	71 e0       	ldi	r23, 0x01	; 1
    12b8:	ce 01       	movw	r24, r28
    12ba:	01 96       	adiw	r24, 0x01	; 1
    12bc:	0e 94 9f 15 	call	0x2b3e	; 0x2b3e <LCD_RefreshScreen>
    12c0:	6d ce       	rjmp	.-806    	; 0xf9c <SettingsMenu_pressedButton+0x3e>

000012c2 <SettingsMenu_ShowMenu>:
    12c2:	bf 92       	push	r11
    12c4:	cf 92       	push	r12
    12c6:	df 92       	push	r13
    12c8:	ef 92       	push	r14
    12ca:	ff 92       	push	r15
    12cc:	0f 93       	push	r16
    12ce:	1f 93       	push	r17
    12d0:	cf 93       	push	r28
    12d2:	df 93       	push	r29
    12d4:	cd b7       	in	r28, 0x3d	; 61
    12d6:	de b7       	in	r29, 0x3e	; 62
    12d8:	2e 97       	sbiw	r28, 0x0e	; 14
    12da:	0f b6       	in	r0, 0x3f	; 63
    12dc:	f8 94       	cli
    12de:	de bf       	out	0x3e, r29	; 62
    12e0:	0f be       	out	0x3f, r0	; 63
    12e2:	cd bf       	out	0x3d, r28	; 61
    12e4:	8c 01       	movw	r16, r24
    12e6:	fc 01       	movw	r30, r24
    12e8:	85 81       	ldd	r24, Z+5	; 0x05
    12ea:	96 81       	ldd	r25, Z+6	; 0x06
    12ec:	9f 83       	std	Y+7, r25	; 0x07
    12ee:	8e 83       	std	Y+6, r24	; 0x06
    12f0:	81 85       	ldd	r24, Z+9	; 0x09
    12f2:	92 85       	ldd	r25, Z+10	; 0x0a
    12f4:	9b 87       	std	Y+11, r25	; 0x0b
    12f6:	8a 87       	std	Y+10, r24	; 0x0a
    12f8:	87 81       	ldd	r24, Z+7	; 0x07
    12fa:	88 87       	std	Y+8, r24	; 0x08
    12fc:	80 85       	ldd	r24, Z+8	; 0x08
    12fe:	89 87       	std	Y+9, r24	; 0x09
    1300:	83 85       	ldd	r24, Z+11	; 0x0b
    1302:	8c 87       	std	Y+12, r24	; 0x0c
    1304:	81 e0       	ldi	r24, 0x01	; 1
    1306:	90 e0       	ldi	r25, 0x00	; 0
    1308:	9e 87       	std	Y+14, r25	; 0x0e
    130a:	8d 87       	std	Y+13, r24	; 0x0d
    130c:	0e 94 fc 0f 	call	0x1ff8	; 0x1ff8 <LCD_Clear>
    1310:	6c e0       	ldi	r22, 0x0C	; 12
    1312:	c6 2e       	mov	r12, r22
    1314:	62 e0       	ldi	r22, 0x02	; 2
    1316:	d6 2e       	mov	r13, r22
    1318:	df 92       	push	r13
    131a:	cf 92       	push	r12
    131c:	1f 92       	push	r1
    131e:	1f 92       	push	r1
    1320:	1f 92       	push	r1
    1322:	1f 92       	push	r1
    1324:	0e 94 dc 13 	call	0x27b8	; 0x27b8 <LCD_XYPrintf>
    1328:	7f e0       	ldi	r23, 0x0F	; 15
    132a:	e7 2e       	mov	r14, r23
    132c:	72 e0       	ldi	r23, 0x02	; 2
    132e:	f7 2e       	mov	r15, r23
    1330:	ff 92       	push	r15
    1332:	ef 92       	push	r14
    1334:	1f 92       	push	r1
    1336:	1f 92       	push	r1
    1338:	1f 92       	push	r1
    133a:	ef e0       	ldi	r30, 0x0F	; 15
    133c:	be 2e       	mov	r11, r30
    133e:	bf 92       	push	r11
    1340:	0e 94 dc 13 	call	0x27b8	; 0x27b8 <LCD_XYPrintf>
    1344:	df 92       	push	r13
    1346:	cf 92       	push	r12
    1348:	1f 92       	push	r1
    134a:	dd 24       	eor	r13, r13
    134c:	d3 94       	inc	r13
    134e:	df 92       	push	r13
    1350:	1f 92       	push	r1
    1352:	1f 92       	push	r1
    1354:	0e 94 dc 13 	call	0x27b8	; 0x27b8 <LCD_XYPrintf>
    1358:	ff 92       	push	r15
    135a:	ef 92       	push	r14
    135c:	1f 92       	push	r1
    135e:	df 92       	push	r13
    1360:	1f 92       	push	r1
    1362:	bf 92       	push	r11
    1364:	0e 94 dc 13 	call	0x27b8	; 0x27b8 <LCD_XYPrintf>
    1368:	82 e1       	ldi	r24, 0x12	; 18
    136a:	92 e0       	ldi	r25, 0x02	; 2
    136c:	9f 93       	push	r25
    136e:	8f 93       	push	r24
    1370:	1f 92       	push	r1
    1372:	1f 92       	push	r1
    1374:	1f 92       	push	r1
    1376:	f3 e0       	ldi	r31, 0x03	; 3
    1378:	cf 2e       	mov	r12, r31
    137a:	cf 92       	push	r12
    137c:	0e 94 dc 13 	call	0x27b8	; 0x27b8 <LCD_XYPrintf>
    1380:	87 e1       	ldi	r24, 0x17	; 23
    1382:	92 e0       	ldi	r25, 0x02	; 2
    1384:	9f 93       	push	r25
    1386:	8f 93       	push	r24
    1388:	1f 92       	push	r1
    138a:	1f 92       	push	r1
    138c:	1f 92       	push	r1
    138e:	89 e0       	ldi	r24, 0x09	; 9
    1390:	8f 93       	push	r24
    1392:	0e 94 dc 13 	call	0x27b8	; 0x27b8 <LCD_XYPrintf>
    1396:	0f b6       	in	r0, 0x3f	; 63
    1398:	f8 94       	cli
    139a:	de bf       	out	0x3e, r29	; 62
    139c:	0f be       	out	0x3f, r0	; 63
    139e:	cd bf       	out	0x3d, r28	; 61
    13a0:	ac e1       	ldi	r26, 0x1C	; 28
    13a2:	ea 2e       	mov	r14, r26
    13a4:	a2 e0       	ldi	r26, 0x02	; 2
    13a6:	fa 2e       	mov	r15, r26
    13a8:	ff 92       	push	r15
    13aa:	ef 92       	push	r14
    13ac:	1f 92       	push	r1
    13ae:	df 92       	push	r13
    13b0:	1f 92       	push	r1
    13b2:	cf 92       	push	r12
    13b4:	0e 94 dc 13 	call	0x27b8	; 0x27b8 <LCD_XYPrintf>
    13b8:	ff 92       	push	r15
    13ba:	ef 92       	push	r14
    13bc:	1f 92       	push	r1
    13be:	df 92       	push	r13
    13c0:	1f 92       	push	r1
    13c2:	8b e0       	ldi	r24, 0x0B	; 11
    13c4:	8f 93       	push	r24
    13c6:	0e 94 dc 13 	call	0x27b8	; 0x27b8 <LCD_XYPrintf>
    13ca:	b1 e2       	ldi	r27, 0x21	; 33
    13cc:	eb 2e       	mov	r14, r27
    13ce:	b2 e0       	ldi	r27, 0x02	; 2
    13d0:	fb 2e       	mov	r15, r27
    13d2:	ff 92       	push	r15
    13d4:	ef 92       	push	r14
    13d6:	1f 92       	push	r1
    13d8:	1f 92       	push	r1
    13da:	1f 92       	push	r1
    13dc:	82 e0       	ldi	r24, 0x02	; 2
    13de:	c8 2e       	mov	r12, r24
    13e0:	cf 92       	push	r12
    13e2:	0e 94 dc 13 	call	0x27b8	; 0x27b8 <LCD_XYPrintf>
    13e6:	ff 92       	push	r15
    13e8:	ef 92       	push	r14
    13ea:	1f 92       	push	r1
    13ec:	df 92       	push	r13
    13ee:	1f 92       	push	r1
    13f0:	cf 92       	push	r12
    13f2:	0e 94 dc 13 	call	0x27b8	; 0x27b8 <LCD_XYPrintf>
    13f6:	ff 92       	push	r15
    13f8:	ef 92       	push	r14
    13fa:	1f 92       	push	r1
    13fc:	1f 92       	push	r1
    13fe:	1f 92       	push	r1
    1400:	9d e0       	ldi	r25, 0x0D	; 13
    1402:	c9 2e       	mov	r12, r25
    1404:	cf 92       	push	r12
    1406:	0e 94 dc 13 	call	0x27b8	; 0x27b8 <LCD_XYPrintf>
    140a:	ff 92       	push	r15
    140c:	ef 92       	push	r14
    140e:	1f 92       	push	r1
    1410:	df 92       	push	r13
    1412:	1f 92       	push	r1
    1414:	cf 92       	push	r12
    1416:	0e 94 dc 13 	call	0x27b8	; 0x27b8 <LCD_XYPrintf>
    141a:	0f b6       	in	r0, 0x3f	; 63
    141c:	f8 94       	cli
    141e:	de bf       	out	0x3e, r29	; 62
    1420:	0f be       	out	0x3f, r0	; 63
    1422:	cd bf       	out	0x3d, r28	; 61
    1424:	80 ed       	ldi	r24, 0xD0	; 208
    1426:	97 e0       	ldi	r25, 0x07	; 7
    1428:	0e 94 97 0d 	call	0x1b2e	; 0x1b2e <DELAY_ms>
    142c:	0e 94 fc 0f 	call	0x1ff8	; 0x1ff8 <LCD_Clear>
    1430:	8d 85       	ldd	r24, Y+13	; 0x0d
    1432:	9e 85       	ldd	r25, Y+14	; 0x0e
    1434:	81 30       	cpi	r24, 0x01	; 1
    1436:	91 05       	cpc	r25, r1
    1438:	29 f4       	brne	.+10     	; 0x1444 <SettingsMenu_ShowMenu+0x182>
    143a:	8e ec       	ldi	r24, 0xCE	; 206
    143c:	91 e0       	ldi	r25, 0x01	; 1
    143e:	0e 94 72 07 	call	0xee4	; 0xee4 <SettingsMenu_PrintLabel>
    1442:	28 c0       	rjmp	.+80     	; 0x1494 <SettingsMenu_ShowMenu+0x1d2>
    1444:	82 30       	cpi	r24, 0x02	; 2
    1446:	91 05       	cpc	r25, r1
    1448:	29 f4       	brne	.+10     	; 0x1454 <SettingsMenu_ShowMenu+0x192>
    144a:	66 ed       	ldi	r22, 0xD6	; 214
    144c:	71 e0       	ldi	r23, 0x01	; 1
    144e:	8e 81       	ldd	r24, Y+6	; 0x06
    1450:	9f 81       	ldd	r25, Y+7	; 0x07
    1452:	0e c0       	rjmp	.+28     	; 0x1470 <SettingsMenu_ShowMenu+0x1ae>
    1454:	83 30       	cpi	r24, 0x03	; 3
    1456:	91 05       	cpc	r25, r1
    1458:	21 f4       	brne	.+8      	; 0x1462 <SettingsMenu_ShowMenu+0x1a0>
    145a:	61 ee       	ldi	r22, 0xE1	; 225
    145c:	71 e0       	ldi	r23, 0x01	; 1
    145e:	88 85       	ldd	r24, Y+8	; 0x08
    1460:	17 c0       	rjmp	.+46     	; 0x1490 <SettingsMenu_ShowMenu+0x1ce>
    1462:	84 30       	cpi	r24, 0x04	; 4
    1464:	91 05       	cpc	r25, r1
    1466:	39 f4       	brne	.+14     	; 0x1476 <SettingsMenu_ShowMenu+0x1b4>
    1468:	6a ee       	ldi	r22, 0xEA	; 234
    146a:	71 e0       	ldi	r23, 0x01	; 1
    146c:	8a 85       	ldd	r24, Y+10	; 0x0a
    146e:	9b 85       	ldd	r25, Y+11	; 0x0b
    1470:	0e 94 30 07 	call	0xe60	; 0xe60 <SettingsMenu_PrintValue>
    1474:	0f c0       	rjmp	.+30     	; 0x1494 <SettingsMenu_ShowMenu+0x1d2>
    1476:	85 30       	cpi	r24, 0x05	; 5
    1478:	91 05       	cpc	r25, r1
    147a:	21 f4       	brne	.+8      	; 0x1484 <SettingsMenu_ShowMenu+0x1c2>
    147c:	65 ef       	ldi	r22, 0xF5	; 245
    147e:	71 e0       	ldi	r23, 0x01	; 1
    1480:	89 85       	ldd	r24, Y+9	; 0x09
    1482:	06 c0       	rjmp	.+12     	; 0x1490 <SettingsMenu_ShowMenu+0x1ce>
    1484:	86 30       	cpi	r24, 0x06	; 6
    1486:	91 05       	cpc	r25, r1
    1488:	69 f4       	brne	.+26     	; 0x14a4 <SettingsMenu_ShowMenu+0x1e2>
    148a:	60 e0       	ldi	r22, 0x00	; 0
    148c:	72 e0       	ldi	r23, 0x02	; 2
    148e:	8c 85       	ldd	r24, Y+12	; 0x0c
    1490:	0e 94 e7 06 	call	0xdce	; 0xdce <SettingsMenu_PrintBoolean>
    1494:	be 01       	movw	r22, r28
    1496:	63 5f       	subi	r22, 0xF3	; 243
    1498:	7f 4f       	sbci	r23, 0xFF	; 255
    149a:	ce 01       	movw	r24, r28
    149c:	01 96       	adiw	r24, 0x01	; 1
    149e:	0e 94 af 07 	call	0xf5e	; 0xf5e <SettingsMenu_pressedButton>
    14a2:	c6 cf       	rjmp	.-116    	; 0x1430 <SettingsMenu_ShowMenu+0x16e>
    14a4:	85 36       	cpi	r24, 0x65	; 101
    14a6:	91 05       	cpc	r25, r1
    14a8:	0c f4       	brge	.+2      	; 0x14ac <SettingsMenu_ShowMenu+0x1ea>
    14aa:	65 c0       	rjmp	.+202    	; 0x1576 <SettingsMenu_ShowMenu+0x2b4>
    14ac:	0e 94 fc 0f 	call	0x1ff8	; 0x1ff8 <LCD_Clear>
    14b0:	83 e2       	ldi	r24, 0x23	; 35
    14b2:	92 e0       	ldi	r25, 0x02	; 2
    14b4:	9f 93       	push	r25
    14b6:	8f 93       	push	r24
    14b8:	1f 92       	push	r1
    14ba:	1f 92       	push	r1
    14bc:	1f 92       	push	r1
    14be:	1f 92       	push	r1
    14c0:	0e 94 dc 13 	call	0x27b8	; 0x27b8 <LCD_XYPrintf>
    14c4:	6e 81       	ldd	r22, Y+6	; 0x06
    14c6:	8f 81       	ldd	r24, Y+7	; 0x07
    14c8:	f8 01       	movw	r30, r16
    14ca:	65 83       	std	Z+5, r22	; 0x05
    14cc:	86 83       	std	Z+6, r24	; 0x06
    14ce:	8a 85       	ldd	r24, Y+10	; 0x0a
    14d0:	9b 85       	ldd	r25, Y+11	; 0x0b
    14d2:	92 87       	std	Z+10, r25	; 0x0a
    14d4:	81 87       	std	Z+9, r24	; 0x09
    14d6:	88 85       	ldd	r24, Y+8	; 0x08
    14d8:	87 83       	std	Z+7, r24	; 0x07
    14da:	89 85       	ldd	r24, Y+9	; 0x09
    14dc:	80 87       	std	Z+8, r24	; 0x08
    14de:	8c 85       	ldd	r24, Y+12	; 0x0c
    14e0:	83 87       	std	Z+11, r24	; 0x0b
    14e2:	80 81       	ld	r24, Z
    14e4:	90 e0       	ldi	r25, 0x00	; 0
    14e6:	0e 94 a2 0d 	call	0x1b44	; 0x1b44 <EEPROM_WriteByte>
    14ea:	88 ec       	ldi	r24, 0xC8	; 200
    14ec:	90 e0       	ldi	r25, 0x00	; 0
    14ee:	0e 94 97 0d 	call	0x1b2e	; 0x1b2e <DELAY_ms>
    14f2:	f8 01       	movw	r30, r16
    14f4:	81 81       	ldd	r24, Z+1	; 0x01
    14f6:	67 81       	ldd	r22, Z+7	; 0x07
    14f8:	90 e0       	ldi	r25, 0x00	; 0
    14fa:	0e 94 a2 0d 	call	0x1b44	; 0x1b44 <EEPROM_WriteByte>
    14fe:	88 ec       	ldi	r24, 0xC8	; 200
    1500:	90 e0       	ldi	r25, 0x00	; 0
    1502:	0e 94 97 0d 	call	0x1b2e	; 0x1b2e <DELAY_ms>
    1506:	f8 01       	movw	r30, r16
    1508:	82 81       	ldd	r24, Z+2	; 0x02
    150a:	61 85       	ldd	r22, Z+9	; 0x09
    150c:	90 e0       	ldi	r25, 0x00	; 0
    150e:	0e 94 a2 0d 	call	0x1b44	; 0x1b44 <EEPROM_WriteByte>
    1512:	88 ec       	ldi	r24, 0xC8	; 200
    1514:	90 e0       	ldi	r25, 0x00	; 0
    1516:	0e 94 97 0d 	call	0x1b2e	; 0x1b2e <DELAY_ms>
    151a:	f8 01       	movw	r30, r16
    151c:	83 81       	ldd	r24, Z+3	; 0x03
    151e:	60 85       	ldd	r22, Z+8	; 0x08
    1520:	90 e0       	ldi	r25, 0x00	; 0
    1522:	0e 94 a2 0d 	call	0x1b44	; 0x1b44 <EEPROM_WriteByte>
    1526:	88 ec       	ldi	r24, 0xC8	; 200
    1528:	90 e0       	ldi	r25, 0x00	; 0
    152a:	0e 94 97 0d 	call	0x1b2e	; 0x1b2e <DELAY_ms>
    152e:	f8 01       	movw	r30, r16
    1530:	84 81       	ldd	r24, Z+4	; 0x04
    1532:	63 85       	ldd	r22, Z+11	; 0x0b
    1534:	90 e0       	ldi	r25, 0x00	; 0
    1536:	0e 94 a2 0d 	call	0x1b44	; 0x1b44 <EEPROM_WriteByte>
    153a:	88 ec       	ldi	r24, 0xC8	; 200
    153c:	90 e0       	ldi	r25, 0x00	; 0
    153e:	0e 94 97 0d 	call	0x1b2e	; 0x1b2e <DELAY_ms>
    1542:	0e 94 fc 0f 	call	0x1ff8	; 0x1ff8 <LCD_Clear>
    1546:	60 e0       	ldi	r22, 0x00	; 0
    1548:	80 e0       	ldi	r24, 0x00	; 0
    154a:	0e 94 5d 10 	call	0x20ba	; 0x20ba <LCD_SetCursor>
    154e:	8d e2       	ldi	r24, 0x2D	; 45
    1550:	92 e0       	ldi	r25, 0x02	; 2
    1552:	9f 93       	push	r25
    1554:	8f 93       	push	r24
    1556:	1f 92       	push	r1
    1558:	1f 92       	push	r1
    155a:	1f 92       	push	r1
    155c:	1f 92       	push	r1
    155e:	0e 94 dc 13 	call	0x27b8	; 0x27b8 <LCD_XYPrintf>
    1562:	88 ee       	ldi	r24, 0xE8	; 232
    1564:	93 e0       	ldi	r25, 0x03	; 3
    1566:	0e 94 97 0d 	call	0x1b2e	; 0x1b2e <DELAY_ms>
    156a:	0f b6       	in	r0, 0x3f	; 63
    156c:	f8 94       	cli
    156e:	de bf       	out	0x3e, r29	; 62
    1570:	0f be       	out	0x3f, r0	; 63
    1572:	cd bf       	out	0x3d, r28	; 61
    1574:	21 c0       	rjmp	.+66     	; 0x15b8 <SettingsMenu_ShowMenu+0x2f6>
    1576:	97 ff       	sbrs	r25, 7
    1578:	5b cf       	rjmp	.-330    	; 0x1430 <SettingsMenu_ShowMenu+0x16e>
    157a:	f8 01       	movw	r30, r16
    157c:	85 81       	ldd	r24, Z+5	; 0x05
    157e:	96 81       	ldd	r25, Z+6	; 0x06
    1580:	0e 94 cc 00 	call	0x198	; 0x198 <LCDEXPLOITING_SetLctBrightness>
    1584:	0e 94 fc 0f 	call	0x1ff8	; 0x1ff8 <LCD_Clear>
    1588:	60 e0       	ldi	r22, 0x00	; 0
    158a:	80 e0       	ldi	r24, 0x00	; 0
    158c:	0e 94 5d 10 	call	0x20ba	; 0x20ba <LCD_SetCursor>
    1590:	83 e3       	ldi	r24, 0x33	; 51
    1592:	92 e0       	ldi	r25, 0x02	; 2
    1594:	9f 93       	push	r25
    1596:	8f 93       	push	r24
    1598:	1f 92       	push	r1
    159a:	1f 92       	push	r1
    159c:	1f 92       	push	r1
    159e:	1f 92       	push	r1
    15a0:	0e 94 dc 13 	call	0x27b8	; 0x27b8 <LCD_XYPrintf>
    15a4:	88 ee       	ldi	r24, 0xE8	; 232
    15a6:	93 e0       	ldi	r25, 0x03	; 3
    15a8:	0e 94 97 0d 	call	0x1b2e	; 0x1b2e <DELAY_ms>
    15ac:	0f 90       	pop	r0
    15ae:	0f 90       	pop	r0
    15b0:	0f 90       	pop	r0
    15b2:	0f 90       	pop	r0
    15b4:	0f 90       	pop	r0
    15b6:	0f 90       	pop	r0
    15b8:	2e 96       	adiw	r28, 0x0e	; 14
    15ba:	0f b6       	in	r0, 0x3f	; 63
    15bc:	f8 94       	cli
    15be:	de bf       	out	0x3e, r29	; 62
    15c0:	0f be       	out	0x3f, r0	; 63
    15c2:	cd bf       	out	0x3d, r28	; 61
    15c4:	df 91       	pop	r29
    15c6:	cf 91       	pop	r28
    15c8:	1f 91       	pop	r17
    15ca:	0f 91       	pop	r16
    15cc:	ff 90       	pop	r15
    15ce:	ef 90       	pop	r14
    15d0:	df 90       	pop	r13
    15d2:	cf 90       	pop	r12
    15d4:	bf 90       	pop	r11
    15d6:	08 95       	ret

000015d8 <UARTCOMMUNICATION_send>:
    15d8:	cf 93       	push	r28
    15da:	df 93       	push	r29
    15dc:	eb 01       	movw	r28, r22
    15de:	9f 93       	push	r25
    15e0:	8f 93       	push	r24
    15e2:	0e 94 82 18 	call	0x3104	; 0x3104 <UART_Printf>
    15e6:	0f 90       	pop	r0
    15e8:	0f 90       	pop	r0
    15ea:	ce 01       	movw	r24, r28
    15ec:	df 91       	pop	r29
    15ee:	cf 91       	pop	r28
    15f0:	0c 94 97 0d 	jmp	0x1b2e	; 0x1b2e <DELAY_ms>

000015f4 <Initialization>:
    15f4:	4f 92       	push	r4
    15f6:	5f 92       	push	r5
    15f8:	6f 92       	push	r6
    15fa:	7f 92       	push	r7
    15fc:	8f 92       	push	r8
    15fe:	af 92       	push	r10
    1600:	cf 92       	push	r12
    1602:	ef 92       	push	r14
    1604:	0f 93       	push	r16
    1606:	1f 93       	push	r17
    1608:	cf 93       	push	r28
    160a:	df 93       	push	r29
    160c:	ec 01       	movw	r28, r24
    160e:	3b 01       	movw	r6, r22
    1610:	2a 01       	movw	r4, r20
    1612:	60 e8       	ldi	r22, 0x80	; 128
    1614:	75 e2       	ldi	r23, 0x25	; 37
    1616:	80 e0       	ldi	r24, 0x00	; 0
    1618:	90 e0       	ldi	r25, 0x00	; 0
    161a:	0e 94 3e 17 	call	0x2e7c	; 0x2e7c <UART_Init>
    161e:	86 e0       	ldi	r24, 0x06	; 6
    1620:	8f 93       	push	r24
    1622:	85 e0       	ldi	r24, 0x05	; 5
    1624:	8f 93       	push	r24
    1626:	84 e0       	ldi	r24, 0x04	; 4
    1628:	88 2e       	mov	r8, r24
    162a:	93 e0       	ldi	r25, 0x03	; 3
    162c:	a9 2e       	mov	r10, r25
    162e:	cc 24       	eor	r12, r12
    1630:	ca 94       	dec	r12
    1632:	ee 24       	eor	r14, r14
    1634:	ea 94       	dec	r14
    1636:	0f ef       	ldi	r16, 0xFF	; 255
    1638:	2f ef       	ldi	r18, 0xFF	; 255
    163a:	42 e0       	ldi	r20, 0x02	; 2
    163c:	61 e0       	ldi	r22, 0x01	; 1
    163e:	80 e0       	ldi	r24, 0x00	; 0
    1640:	0e 94 62 0f 	call	0x1ec4	; 0x1ec4 <LCD_SetUp>
    1644:	60 e1       	ldi	r22, 0x10	; 16
    1646:	82 e0       	ldi	r24, 0x02	; 2
    1648:	0e 94 02 10 	call	0x2004	; 0x2004 <LCD_Init>
    164c:	17 ba       	out	0x17, r1	; 23
    164e:	8f ef       	ldi	r24, 0xFF	; 255
    1650:	88 bb       	out	0x18, r24	; 24
    1652:	0e 94 b6 06 	call	0xd6c	; 0xd6c <PWM_Init>
    1656:	0e 94 d6 06 	call	0xdac	; 0xdac <PWM_Start>
    165a:	80 e0       	ldi	r24, 0x00	; 0
    165c:	90 e0       	ldi	r25, 0x00	; 0
    165e:	0e 94 9b 06 	call	0xd36	; 0xd36 <LedControl_OFF>
    1662:	81 e0       	ldi	r24, 0x01	; 1
    1664:	90 e0       	ldi	r25, 0x00	; 0
    1666:	0e 94 aa 0d 	call	0x1b54	; 0x1b54 <EEPROM_ReadByte>
    166a:	0f 90       	pop	r0
    166c:	0f 90       	pop	r0
    166e:	81 11       	cpse	r24, r1
    1670:	44 c0       	rjmp	.+136    	; 0x16fa <Initialization+0x106>
    1672:	82 e0       	ldi	r24, 0x02	; 2
    1674:	88 83       	st	Y, r24
    1676:	82 e3       	ldi	r24, 0x32	; 50
    1678:	90 e0       	ldi	r25, 0x00	; 0
    167a:	9e 83       	std	Y+6, r25	; 0x06
    167c:	8d 83       	std	Y+5, r24	; 0x05
    167e:	82 e0       	ldi	r24, 0x02	; 2
    1680:	90 e0       	ldi	r25, 0x00	; 0
    1682:	0e 94 aa 0d 	call	0x1b54	; 0x1b54 <EEPROM_ReadByte>
    1686:	90 e0       	ldi	r25, 0x00	; 0
    1688:	9e 83       	std	Y+6, r25	; 0x06
    168a:	8d 83       	std	Y+5, r24	; 0x05
    168c:	64 e6       	ldi	r22, 0x64	; 100
    168e:	81 e0       	ldi	r24, 0x01	; 1
    1690:	0e 94 ba 06 	call	0xd74	; 0xd74 <PWM_SetDutyCycle>
    1694:	83 e0       	ldi	r24, 0x03	; 3
    1696:	89 83       	std	Y+1, r24	; 0x01
    1698:	81 e0       	ldi	r24, 0x01	; 1
    169a:	8f 83       	std	Y+7, r24	; 0x07
    169c:	83 e0       	ldi	r24, 0x03	; 3
    169e:	90 e0       	ldi	r25, 0x00	; 0
    16a0:	0e 94 aa 0d 	call	0x1b54	; 0x1b54 <EEPROM_ReadByte>
    16a4:	91 e0       	ldi	r25, 0x01	; 1
    16a6:	81 11       	cpse	r24, r1
    16a8:	01 c0       	rjmp	.+2      	; 0x16ac <Initialization+0xb8>
    16aa:	90 e0       	ldi	r25, 0x00	; 0
    16ac:	9f 83       	std	Y+7, r25	; 0x07
    16ae:	84 e0       	ldi	r24, 0x04	; 4
    16b0:	8a 83       	std	Y+2, r24	; 0x02
    16b2:	84 e6       	ldi	r24, 0x64	; 100
    16b4:	90 e0       	ldi	r25, 0x00	; 0
    16b6:	9a 87       	std	Y+10, r25	; 0x0a
    16b8:	89 87       	std	Y+9, r24	; 0x09
    16ba:	84 e0       	ldi	r24, 0x04	; 4
    16bc:	90 e0       	ldi	r25, 0x00	; 0
    16be:	0e 94 aa 0d 	call	0x1b54	; 0x1b54 <EEPROM_ReadByte>
    16c2:	90 e0       	ldi	r25, 0x00	; 0
    16c4:	9a 87       	std	Y+10, r25	; 0x0a
    16c6:	89 87       	std	Y+9, r24	; 0x09
    16c8:	85 e0       	ldi	r24, 0x05	; 5
    16ca:	8b 83       	std	Y+3, r24	; 0x03
    16cc:	18 86       	std	Y+8, r1	; 0x08
    16ce:	85 e0       	ldi	r24, 0x05	; 5
    16d0:	90 e0       	ldi	r25, 0x00	; 0
    16d2:	0e 94 aa 0d 	call	0x1b54	; 0x1b54 <EEPROM_ReadByte>
    16d6:	91 e0       	ldi	r25, 0x01	; 1
    16d8:	81 11       	cpse	r24, r1
    16da:	01 c0       	rjmp	.+2      	; 0x16de <Initialization+0xea>
    16dc:	90 e0       	ldi	r25, 0x00	; 0
    16de:	98 87       	std	Y+8, r25	; 0x08
    16e0:	86 e0       	ldi	r24, 0x06	; 6
    16e2:	8c 83       	std	Y+4, r24	; 0x04
    16e4:	1b 86       	std	Y+11, r1	; 0x0b
    16e6:	86 e0       	ldi	r24, 0x06	; 6
    16e8:	90 e0       	ldi	r25, 0x00	; 0
    16ea:	0e 94 aa 0d 	call	0x1b54	; 0x1b54 <EEPROM_ReadByte>
    16ee:	91 e0       	ldi	r25, 0x01	; 1
    16f0:	81 11       	cpse	r24, r1
    16f2:	01 c0       	rjmp	.+2      	; 0x16f6 <Initialization+0x102>
    16f4:	90 e0       	ldi	r25, 0x00	; 0
    16f6:	9b 87       	std	Y+11, r25	; 0x0b
    16f8:	60 c0       	rjmp	.+192    	; 0x17ba <Initialization+0x1c6>
    16fa:	0e 94 fc 0f 	call	0x1ff8	; 0x1ff8 <LCD_Clear>
    16fe:	8c e3       	ldi	r24, 0x3C	; 60
    1700:	92 e0       	ldi	r25, 0x02	; 2
    1702:	9f 93       	push	r25
    1704:	8f 93       	push	r24
    1706:	1f 92       	push	r1
    1708:	1f 92       	push	r1
    170a:	1f 92       	push	r1
    170c:	1f 92       	push	r1
    170e:	0e 94 dc 13 	call	0x27b8	; 0x27b8 <LCD_XYPrintf>
    1712:	8d e4       	ldi	r24, 0x4D	; 77
    1714:	92 e0       	ldi	r25, 0x02	; 2
    1716:	9f 93       	push	r25
    1718:	8f 93       	push	r24
    171a:	1f 92       	push	r1
    171c:	11 e0       	ldi	r17, 0x01	; 1
    171e:	1f 93       	push	r17
    1720:	1f 92       	push	r1
    1722:	1f 92       	push	r1
    1724:	0e 94 dc 13 	call	0x27b8	; 0x27b8 <LCD_XYPrintf>
    1728:	1b 86       	std	Y+11, r1	; 0x0b
    172a:	82 e3       	ldi	r24, 0x32	; 50
    172c:	90 e0       	ldi	r25, 0x00	; 0
    172e:	9e 83       	std	Y+6, r25	; 0x06
    1730:	8d 83       	std	Y+5, r24	; 0x05
    1732:	1f 83       	std	Y+7, r17	; 0x07
    1734:	84 e6       	ldi	r24, 0x64	; 100
    1736:	90 e0       	ldi	r25, 0x00	; 0
    1738:	9a 87       	std	Y+10, r25	; 0x0a
    173a:	89 87       	std	Y+9, r24	; 0x09
    173c:	18 86       	std	Y+8, r1	; 0x08
    173e:	60 e0       	ldi	r22, 0x00	; 0
    1740:	81 e0       	ldi	r24, 0x01	; 1
    1742:	90 e0       	ldi	r25, 0x00	; 0
    1744:	0e 94 a2 0d 	call	0x1b44	; 0x1b44 <EEPROM_WriteByte>
    1748:	88 81       	ld	r24, Y
    174a:	6d 81       	ldd	r22, Y+5	; 0x05
    174c:	90 e0       	ldi	r25, 0x00	; 0
    174e:	0e 94 a2 0d 	call	0x1b44	; 0x1b44 <EEPROM_WriteByte>
    1752:	88 ec       	ldi	r24, 0xC8	; 200
    1754:	90 e0       	ldi	r25, 0x00	; 0
    1756:	0e 94 97 0d 	call	0x1b2e	; 0x1b2e <DELAY_ms>
    175a:	89 81       	ldd	r24, Y+1	; 0x01
    175c:	6f 81       	ldd	r22, Y+7	; 0x07
    175e:	90 e0       	ldi	r25, 0x00	; 0
    1760:	0e 94 a2 0d 	call	0x1b44	; 0x1b44 <EEPROM_WriteByte>
    1764:	88 ec       	ldi	r24, 0xC8	; 200
    1766:	90 e0       	ldi	r25, 0x00	; 0
    1768:	0e 94 97 0d 	call	0x1b2e	; 0x1b2e <DELAY_ms>
    176c:	8a 81       	ldd	r24, Y+2	; 0x02
    176e:	69 85       	ldd	r22, Y+9	; 0x09
    1770:	90 e0       	ldi	r25, 0x00	; 0
    1772:	0e 94 a2 0d 	call	0x1b44	; 0x1b44 <EEPROM_WriteByte>
    1776:	88 ec       	ldi	r24, 0xC8	; 200
    1778:	90 e0       	ldi	r25, 0x00	; 0
    177a:	0e 94 97 0d 	call	0x1b2e	; 0x1b2e <DELAY_ms>
    177e:	8b 81       	ldd	r24, Y+3	; 0x03
    1780:	68 85       	ldd	r22, Y+8	; 0x08
    1782:	90 e0       	ldi	r25, 0x00	; 0
    1784:	0e 94 a2 0d 	call	0x1b44	; 0x1b44 <EEPROM_WriteByte>
    1788:	88 ec       	ldi	r24, 0xC8	; 200
    178a:	90 e0       	ldi	r25, 0x00	; 0
    178c:	0e 94 97 0d 	call	0x1b2e	; 0x1b2e <DELAY_ms>
    1790:	8c 81       	ldd	r24, Y+4	; 0x04
    1792:	6b 85       	ldd	r22, Y+11	; 0x0b
    1794:	90 e0       	ldi	r25, 0x00	; 0
    1796:	0e 94 a2 0d 	call	0x1b44	; 0x1b44 <EEPROM_WriteByte>
    179a:	88 ec       	ldi	r24, 0xC8	; 200
    179c:	90 e0       	ldi	r25, 0x00	; 0
    179e:	0e 94 97 0d 	call	0x1b2e	; 0x1b2e <DELAY_ms>
    17a2:	88 ec       	ldi	r24, 0xC8	; 200
    17a4:	90 e0       	ldi	r25, 0x00	; 0
    17a6:	0e 94 97 0d 	call	0x1b2e	; 0x1b2e <DELAY_ms>
    17aa:	8d b7       	in	r24, 0x3d	; 61
    17ac:	9e b7       	in	r25, 0x3e	; 62
    17ae:	0c 96       	adiw	r24, 0x0c	; 12
    17b0:	0f b6       	in	r0, 0x3f	; 63
    17b2:	f8 94       	cli
    17b4:	9e bf       	out	0x3e, r25	; 62
    17b6:	0f be       	out	0x3f, r0	; 63
    17b8:	8d bf       	out	0x3d, r24	; 61
    17ba:	0e 94 c6 12 	call	0x258c	; 0x258c <LCD_InitializeSymbols>
    17be:	8c e0       	ldi	r24, 0x0C	; 12
    17c0:	0e 94 d3 0f 	call	0x1fa6	; 0x1fa6 <LCD_CmdWrite>
    17c4:	8f 81       	ldd	r24, Y+7	; 0x07
    17c6:	88 23       	and	r24, r24
    17c8:	29 f0       	breq	.+10     	; 0x17d4 <Initialization+0x1e0>
    17ca:	88 ee       	ldi	r24, 0xE8	; 232
    17cc:	93 e0       	ldi	r25, 0x03	; 3
    17ce:	0e 94 81 06 	call	0xd02	; 0xd02 <LedControl_ON>
    17d2:	04 c0       	rjmp	.+8      	; 0x17dc <Initialization+0x1e8>
    17d4:	88 ee       	ldi	r24, 0xE8	; 232
    17d6:	93 e0       	ldi	r25, 0x03	; 3
    17d8:	0e 94 97 0d 	call	0x1b2e	; 0x1b2e <DELAY_ms>
    17dc:	0e 94 fc 0f 	call	0x1ff8	; 0x1ff8 <LCD_Clear>
    17e0:	8e e5       	ldi	r24, 0x5E	; 94
    17e2:	92 e0       	ldi	r25, 0x02	; 2
    17e4:	9f 93       	push	r25
    17e6:	8f 93       	push	r24
    17e8:	1f 92       	push	r1
    17ea:	1f 92       	push	r1
    17ec:	1f 92       	push	r1
    17ee:	13 e0       	ldi	r17, 0x03	; 3
    17f0:	1f 93       	push	r17
    17f2:	0e 94 dc 13 	call	0x27b8	; 0x27b8 <LCD_XYPrintf>
    17f6:	88 e6       	ldi	r24, 0x68	; 104
    17f8:	92 e0       	ldi	r25, 0x02	; 2
    17fa:	9f 93       	push	r25
    17fc:	8f 93       	push	r24
    17fe:	1f 92       	push	r1
    1800:	81 e0       	ldi	r24, 0x01	; 1
    1802:	8f 93       	push	r24
    1804:	1f 92       	push	r1
    1806:	1f 93       	push	r17
    1808:	0e 94 dc 13 	call	0x27b8	; 0x27b8 <LCD_XYPrintf>
    180c:	ed b7       	in	r30, 0x3d	; 61
    180e:	fe b7       	in	r31, 0x3e	; 62
    1810:	3c 96       	adiw	r30, 0x0c	; 12
    1812:	0f b6       	in	r0, 0x3f	; 63
    1814:	f8 94       	cli
    1816:	fe bf       	out	0x3e, r31	; 62
    1818:	0f be       	out	0x3f, r0	; 63
    181a:	ed bf       	out	0x3d, r30	; 61
    181c:	00 e0       	ldi	r16, 0x00	; 0
    181e:	10 e0       	ldi	r17, 0x00	; 0
    1820:	8d 81       	ldd	r24, Y+5	; 0x05
    1822:	9e 81       	ldd	r25, Y+6	; 0x06
    1824:	08 17       	cp	r16, r24
    1826:	19 07       	cpc	r17, r25
    1828:	54 f4       	brge	.+20     	; 0x183e <Initialization+0x24a>
    182a:	c8 01       	movw	r24, r16
    182c:	0e 94 cc 00 	call	0x198	; 0x198 <LCDEXPLOITING_SetLctBrightness>
    1830:	84 e1       	ldi	r24, 0x14	; 20
    1832:	90 e0       	ldi	r25, 0x00	; 0
    1834:	0e 94 97 0d 	call	0x1b2e	; 0x1b2e <DELAY_ms>
    1838:	0f 5f       	subi	r16, 0xFF	; 255
    183a:	1f 4f       	sbci	r17, 0xFF	; 255
    183c:	f1 cf       	rjmp	.-30     	; 0x1820 <Initialization+0x22c>
    183e:	88 ec       	ldi	r24, 0xC8	; 200
    1840:	90 e0       	ldi	r25, 0x00	; 0
    1842:	0e 94 97 0d 	call	0x1b2e	; 0x1b2e <DELAY_ms>
    1846:	0e 94 fc 0f 	call	0x1ff8	; 0x1ff8 <LCD_Clear>
    184a:	81 e0       	ldi	r24, 0x01	; 1
    184c:	90 e0       	ldi	r25, 0x00	; 0
    184e:	f3 01       	movw	r30, r6
    1850:	91 83       	std	Z+1, r25	; 0x01
    1852:	80 83       	st	Z, r24
    1854:	8f 81       	ldd	r24, Y+7	; 0x07
    1856:	88 23       	and	r24, r24
    1858:	29 f0       	breq	.+10     	; 0x1864 <Initialization+0x270>
    185a:	84 e6       	ldi	r24, 0x64	; 100
    185c:	90 e0       	ldi	r25, 0x00	; 0
    185e:	0e 94 9b 06 	call	0xd36	; 0xd36 <LedControl_OFF>
    1862:	04 c0       	rjmp	.+8      	; 0x186c <Initialization+0x278>
    1864:	84 e6       	ldi	r24, 0x64	; 100
    1866:	90 e0       	ldi	r25, 0x00	; 0
    1868:	0e 94 97 0d 	call	0x1b2e	; 0x1b2e <DELAY_ms>
    186c:	8f 81       	ldd	r24, Y+7	; 0x07
    186e:	88 23       	and	r24, r24
    1870:	29 f0       	breq	.+10     	; 0x187c <Initialization+0x288>
    1872:	84 e6       	ldi	r24, 0x64	; 100
    1874:	90 e0       	ldi	r25, 0x00	; 0
    1876:	0e 94 81 06 	call	0xd02	; 0xd02 <LedControl_ON>
    187a:	04 c0       	rjmp	.+8      	; 0x1884 <Initialization+0x290>
    187c:	84 e6       	ldi	r24, 0x64	; 100
    187e:	90 e0       	ldi	r25, 0x00	; 0
    1880:	0e 94 97 0d 	call	0x1b2e	; 0x1b2e <DELAY_ms>
    1884:	ae 01       	movw	r20, r28
    1886:	b2 01       	movw	r22, r4
    1888:	8f 81       	ldd	r24, Y+7	; 0x07
    188a:	0e 94 4f 02 	call	0x49e	; 0x49e <screen_show_initialize>
    188e:	b2 01       	movw	r22, r4
    1890:	f3 01       	movw	r30, r6
    1892:	80 81       	ld	r24, Z
    1894:	91 81       	ldd	r25, Z+1	; 0x01
    1896:	0e 94 ea 00 	call	0x1d4	; 0x1d4 <LCDEXPLOITING_showPage>
    189a:	c0 9a       	sbi	0x18, 0	; 24
    189c:	8d 81       	ldd	r24, Y+5	; 0x05
    189e:	9e 81       	ldd	r25, Y+6	; 0x06
    18a0:	df 91       	pop	r29
    18a2:	cf 91       	pop	r28
    18a4:	1f 91       	pop	r17
    18a6:	0f 91       	pop	r16
    18a8:	ef 90       	pop	r14
    18aa:	cf 90       	pop	r12
    18ac:	af 90       	pop	r10
    18ae:	8f 90       	pop	r8
    18b0:	7f 90       	pop	r7
    18b2:	6f 90       	pop	r6
    18b4:	5f 90       	pop	r5
    18b6:	4f 90       	pop	r4
    18b8:	0c 94 cc 00 	jmp	0x198	; 0x198 <LCDEXPLOITING_SetLctBrightness>

000018bc <ShowPage>:
    18bc:	cf 93       	push	r28
    18be:	df 93       	push	r29
    18c0:	00 d0       	rcall	.+0      	; 0x18c2 <ShowPage+0x6>
    18c2:	00 d0       	rcall	.+0      	; 0x18c4 <ShowPage+0x8>
    18c4:	cd b7       	in	r28, 0x3d	; 61
    18c6:	de b7       	in	r29, 0x3e	; 62
    18c8:	44 23       	and	r20, r20
    18ca:	21 f1       	breq	.+72     	; 0x1914 <ShowPage+0x58>
    18cc:	69 83       	std	Y+1, r22	; 0x01
    18ce:	7a 83       	std	Y+2, r23	; 0x02
    18d0:	8b 83       	std	Y+3, r24	; 0x03
    18d2:	9c 83       	std	Y+4, r25	; 0x04
    18d4:	0e 94 fc 0f 	call	0x1ff8	; 0x1ff8 <LCD_Clear>
    18d8:	7a 81       	ldd	r23, Y+2	; 0x02
    18da:	7f 93       	push	r23
    18dc:	69 81       	ldd	r22, Y+1	; 0x01
    18de:	6f 93       	push	r22
    18e0:	24 ec       	ldi	r18, 0xC4	; 196
    18e2:	31 e0       	ldi	r19, 0x01	; 1
    18e4:	3f 93       	push	r19
    18e6:	2f 93       	push	r18
    18e8:	1f 92       	push	r1
    18ea:	1f 92       	push	r1
    18ec:	1f 92       	push	r1
    18ee:	27 e0       	ldi	r18, 0x07	; 7
    18f0:	2f 93       	push	r18
    18f2:	0e 94 dc 13 	call	0x27b8	; 0x27b8 <LCD_XYPrintf>
    18f6:	0f b6       	in	r0, 0x3f	; 63
    18f8:	f8 94       	cli
    18fa:	de bf       	out	0x3e, r29	; 62
    18fc:	0f be       	out	0x3f, r0	; 63
    18fe:	cd bf       	out	0x3d, r28	; 61
    1900:	8b 81       	ldd	r24, Y+3	; 0x03
    1902:	9c 81       	ldd	r25, Y+4	; 0x04
    1904:	0f 90       	pop	r0
    1906:	0f 90       	pop	r0
    1908:	0f 90       	pop	r0
    190a:	0f 90       	pop	r0
    190c:	df 91       	pop	r29
    190e:	cf 91       	pop	r28
    1910:	0c 94 97 0d 	jmp	0x1b2e	; 0x1b2e <DELAY_ms>
    1914:	0f 90       	pop	r0
    1916:	0f 90       	pop	r0
    1918:	0f 90       	pop	r0
    191a:	0f 90       	pop	r0
    191c:	df 91       	pop	r29
    191e:	cf 91       	pop	r28
    1920:	08 95       	ret

00001922 <MainLoop>:
    1922:	cf 93       	push	r28
    1924:	df 93       	push	r29
    1926:	00 d0       	rcall	.+0      	; 0x1928 <MainLoop+0x6>
    1928:	cd b7       	in	r28, 0x3d	; 61
    192a:	de b7       	in	r29, 0x3e	; 62
    192c:	8c 01       	movw	r16, r24
    192e:	7b 01       	movw	r14, r22
    1930:	4a 01       	movw	r8, r20
    1932:	1a 82       	std	Y+2, r1	; 0x02
    1934:	19 82       	std	Y+1, r1	; 0x01
    1936:	a1 2c       	mov	r10, r1
    1938:	b1 2c       	mov	r11, r1
    193a:	68 ec       	ldi	r22, 0xC8	; 200
    193c:	c6 2e       	mov	r12, r22
    193e:	d1 2c       	mov	r13, r1
    1940:	66 24       	eor	r6, r6
    1942:	63 94       	inc	r6
    1944:	71 2c       	mov	r7, r1
    1946:	b1 9b       	sbis	0x16, 1	; 22
    1948:	02 c0       	rjmp	.+4      	; 0x194e <MainLoop+0x2c>
    194a:	b0 99       	sbic	0x16, 0	; 22
    194c:	57 c0       	rjmp	.+174    	; 0x19fc <MainLoop+0xda>
    194e:	b0 99       	sbic	0x16, 0	; 22
    1950:	18 c0       	rjmp	.+48     	; 0x1982 <MainLoop+0x60>
    1952:	f7 01       	movw	r30, r14
    1954:	80 81       	ld	r24, Z
    1956:	91 81       	ldd	r25, Z+1	; 0x01
    1958:	04 97       	sbiw	r24, 0x04	; 4
    195a:	9c f4       	brge	.+38     	; 0x1982 <MainLoop+0x60>
    195c:	f8 01       	movw	r30, r16
    195e:	87 81       	ldd	r24, Z+7	; 0x07
    1960:	88 23       	and	r24, r24
    1962:	29 f0       	breq	.+10     	; 0x196e <MainLoop+0x4c>
    1964:	84 e6       	ldi	r24, 0x64	; 100
    1966:	90 e0       	ldi	r25, 0x00	; 0
    1968:	0e 94 81 06 	call	0xd02	; 0xd02 <LedControl_ON>
    196c:	04 c0       	rjmp	.+8      	; 0x1976 <MainLoop+0x54>
    196e:	84 e6       	ldi	r24, 0x64	; 100
    1970:	90 e0       	ldi	r25, 0x00	; 0
    1972:	0e 94 97 0d 	call	0x1b2e	; 0x1b2e <DELAY_ms>
    1976:	f7 01       	movw	r30, r14
    1978:	60 81       	ld	r22, Z
    197a:	71 81       	ldd	r23, Z+1	; 0x01
    197c:	6f 5f       	subi	r22, 0xFF	; 255
    197e:	7f 4f       	sbci	r23, 0xFF	; 255
    1980:	19 c0       	rjmp	.+50     	; 0x19b4 <MainLoop+0x92>
    1982:	b1 99       	sbic	0x16, 1	; 22
    1984:	3b c0       	rjmp	.+118    	; 0x19fc <MainLoop+0xda>
    1986:	f7 01       	movw	r30, r14
    1988:	80 81       	ld	r24, Z
    198a:	91 81       	ldd	r25, Z+1	; 0x01
    198c:	02 97       	sbiw	r24, 0x02	; 2
    198e:	b4 f1       	brlt	.+108    	; 0x19fc <MainLoop+0xda>
    1990:	f8 01       	movw	r30, r16
    1992:	87 81       	ldd	r24, Z+7	; 0x07
    1994:	88 23       	and	r24, r24
    1996:	29 f0       	breq	.+10     	; 0x19a2 <MainLoop+0x80>
    1998:	84 e6       	ldi	r24, 0x64	; 100
    199a:	90 e0       	ldi	r25, 0x00	; 0
    199c:	0e 94 81 06 	call	0xd02	; 0xd02 <LedControl_ON>
    19a0:	04 c0       	rjmp	.+8      	; 0x19aa <MainLoop+0x88>
    19a2:	84 e6       	ldi	r24, 0x64	; 100
    19a4:	90 e0       	ldi	r25, 0x00	; 0
    19a6:	0e 94 97 0d 	call	0x1b2e	; 0x1b2e <DELAY_ms>
    19aa:	f7 01       	movw	r30, r14
    19ac:	60 81       	ld	r22, Z
    19ae:	71 81       	ldd	r23, Z+1	; 0x01
    19b0:	61 50       	subi	r22, 0x01	; 1
    19b2:	71 09       	sbc	r23, r1
    19b4:	71 83       	std	Z+1, r23	; 0x01
    19b6:	60 83       	st	Z, r22
    19b8:	f8 01       	movw	r30, r16
    19ba:	43 85       	ldd	r20, Z+11	; 0x0b
    19bc:	84 ef       	ldi	r24, 0xF4	; 244
    19be:	91 e0       	ldi	r25, 0x01	; 1
    19c0:	0e 94 5e 0c 	call	0x18bc	; 0x18bc <ShowPage>
    19c4:	b4 01       	movw	r22, r8
    19c6:	f7 01       	movw	r30, r14
    19c8:	80 81       	ld	r24, Z
    19ca:	91 81       	ldd	r25, Z+1	; 0x01
    19cc:	0e 94 ea 00 	call	0x1d4	; 0x1d4 <LCDEXPLOITING_showPage>
    19d0:	f8 01       	movw	r30, r16
    19d2:	87 81       	ldd	r24, Z+7	; 0x07
    19d4:	88 23       	and	r24, r24
    19d6:	29 f0       	breq	.+10     	; 0x19e2 <MainLoop+0xc0>
    19d8:	84 e6       	ldi	r24, 0x64	; 100
    19da:	90 e0       	ldi	r25, 0x00	; 0
    19dc:	0e 94 9b 06 	call	0xd36	; 0xd36 <LedControl_OFF>
    19e0:	04 c0       	rjmp	.+8      	; 0x19ea <MainLoop+0xc8>
    19e2:	84 e6       	ldi	r24, 0x64	; 100
    19e4:	90 e0       	ldi	r25, 0x00	; 0
    19e6:	0e 94 97 0d 	call	0x1b2e	; 0x1b2e <DELAY_ms>
    19ea:	f8 01       	movw	r30, r16
    19ec:	81 85       	ldd	r24, Z+9	; 0x09
    19ee:	92 85       	ldd	r25, Z+10	; 0x0a
    19f0:	88 0f       	add	r24, r24
    19f2:	99 1f       	adc	r25, r25
    19f4:	88 0f       	add	r24, r24
    19f6:	99 1f       	adc	r25, r25
    19f8:	0e 94 97 0d 	call	0x1b2e	; 0x1b2e <DELAY_ms>
    19fc:	86 b3       	in	r24, 0x16	; 22
    19fe:	83 70       	andi	r24, 0x03	; 3
    1a00:	59 f4       	brne	.+22     	; 0x1a18 <MainLoop+0xf6>
    1a02:	c8 01       	movw	r24, r16
    1a04:	0e 94 61 09 	call	0x12c2	; 0x12c2 <SettingsMenu_ShowMenu>
    1a08:	f7 01       	movw	r30, r14
    1a0a:	71 82       	std	Z+1, r7	; 0x01
    1a0c:	60 82       	st	Z, r6
    1a0e:	b4 01       	movw	r22, r8
    1a10:	81 e0       	ldi	r24, 0x01	; 1
    1a12:	90 e0       	ldi	r25, 0x00	; 0
    1a14:	0e 94 ea 00 	call	0x1d4	; 0x1d4 <LCDEXPLOITING_showPage>
    1a18:	b2 9b       	sbis	0x16, 2	; 22
    1a1a:	06 c0       	rjmp	.+12     	; 0x1a28 <MainLoop+0x106>
    1a1c:	b3 9b       	sbis	0x16, 3	; 22
    1a1e:	04 c0       	rjmp	.+8      	; 0x1a28 <MainLoop+0x106>
    1a20:	b4 9b       	sbis	0x16, 4	; 22
    1a22:	02 c0       	rjmp	.+4      	; 0x1a28 <MainLoop+0x106>
    1a24:	b5 99       	sbic	0x16, 5	; 22
    1a26:	3f c0       	rjmp	.+126    	; 0x1aa6 <MainLoop+0x184>
    1a28:	b2 99       	sbic	0x16, 2	; 22
    1a2a:	09 c0       	rjmp	.+18     	; 0x1a3e <MainLoop+0x11c>
    1a2c:	f7 01       	movw	r30, r14
    1a2e:	60 81       	ld	r22, Z
    1a30:	71 81       	ldd	r23, Z+1	; 0x01
    1a32:	96 01       	movw	r18, r12
    1a34:	f8 01       	movw	r30, r16
    1a36:	47 81       	ldd	r20, Z+7	; 0x07
    1a38:	81 e0       	ldi	r24, 0x01	; 1
    1a3a:	90 e0       	ldi	r25, 0x00	; 0
    1a3c:	20 c0       	rjmp	.+64     	; 0x1a7e <MainLoop+0x15c>
    1a3e:	b3 99       	sbic	0x16, 3	; 22
    1a40:	09 c0       	rjmp	.+18     	; 0x1a54 <MainLoop+0x132>
    1a42:	f7 01       	movw	r30, r14
    1a44:	60 81       	ld	r22, Z
    1a46:	71 81       	ldd	r23, Z+1	; 0x01
    1a48:	96 01       	movw	r18, r12
    1a4a:	f8 01       	movw	r30, r16
    1a4c:	47 81       	ldd	r20, Z+7	; 0x07
    1a4e:	82 e0       	ldi	r24, 0x02	; 2
    1a50:	90 e0       	ldi	r25, 0x00	; 0
    1a52:	15 c0       	rjmp	.+42     	; 0x1a7e <MainLoop+0x15c>
    1a54:	b4 99       	sbic	0x16, 4	; 22
    1a56:	09 c0       	rjmp	.+18     	; 0x1a6a <MainLoop+0x148>
    1a58:	f7 01       	movw	r30, r14
    1a5a:	60 81       	ld	r22, Z
    1a5c:	71 81       	ldd	r23, Z+1	; 0x01
    1a5e:	96 01       	movw	r18, r12
    1a60:	f8 01       	movw	r30, r16
    1a62:	47 81       	ldd	r20, Z+7	; 0x07
    1a64:	83 e0       	ldi	r24, 0x03	; 3
    1a66:	90 e0       	ldi	r25, 0x00	; 0
    1a68:	0a c0       	rjmp	.+20     	; 0x1a7e <MainLoop+0x15c>
    1a6a:	b5 99       	sbic	0x16, 5	; 22
    1a6c:	0a c0       	rjmp	.+20     	; 0x1a82 <MainLoop+0x160>
    1a6e:	f7 01       	movw	r30, r14
    1a70:	60 81       	ld	r22, Z
    1a72:	71 81       	ldd	r23, Z+1	; 0x01
    1a74:	96 01       	movw	r18, r12
    1a76:	f8 01       	movw	r30, r16
    1a78:	47 81       	ldd	r20, Z+7	; 0x07
    1a7a:	84 e0       	ldi	r24, 0x04	; 4
    1a7c:	90 e0       	ldi	r25, 0x00	; 0
    1a7e:	0e 94 57 00 	call	0xae	; 0xae <DEVCOMMAND_ExecuteCommand>
    1a82:	ff ef       	ldi	r31, 0xFF	; 255
    1a84:	af 1a       	sub	r10, r31
    1a86:	bf 0a       	sbc	r11, r31
    1a88:	83 e0       	ldi	r24, 0x03	; 3
    1a8a:	a8 16       	cp	r10, r24
    1a8c:	b1 04       	cpc	r11, r1
    1a8e:	89 f0       	breq	.+34     	; 0x1ab2 <MainLoop+0x190>
    1a90:	e5 e0       	ldi	r30, 0x05	; 5
    1a92:	ae 16       	cp	r10, r30
    1a94:	b1 04       	cpc	r11, r1
    1a96:	89 f0       	breq	.+34     	; 0x1aba <MainLoop+0x198>
    1a98:	f8 e0       	ldi	r31, 0x08	; 8
    1a9a:	af 16       	cp	r10, r31
    1a9c:	b1 04       	cpc	r11, r1
    1a9e:	81 f4       	brne	.+32     	; 0x1ac0 <MainLoop+0x19e>
    1aa0:	c1 2c       	mov	r12, r1
    1aa2:	d1 2c       	mov	r13, r1
    1aa4:	0d c0       	rjmp	.+26     	; 0x1ac0 <MainLoop+0x19e>
    1aa6:	a1 2c       	mov	r10, r1
    1aa8:	b1 2c       	mov	r11, r1
    1aaa:	48 ec       	ldi	r20, 0xC8	; 200
    1aac:	c4 2e       	mov	r12, r20
    1aae:	d1 2c       	mov	r13, r1
    1ab0:	07 c0       	rjmp	.+14     	; 0x1ac0 <MainLoop+0x19e>
    1ab2:	36 e9       	ldi	r19, 0x96	; 150
    1ab4:	c3 2e       	mov	r12, r19
    1ab6:	d1 2c       	mov	r13, r1
    1ab8:	03 c0       	rjmp	.+6      	; 0x1ac0 <MainLoop+0x19e>
    1aba:	24 e6       	ldi	r18, 0x64	; 100
    1abc:	c2 2e       	mov	r12, r18
    1abe:	d1 2c       	mov	r13, r1
    1ac0:	64 ef       	ldi	r22, 0xF4	; 244
    1ac2:	71 e0       	ldi	r23, 0x01	; 1
    1ac4:	ce 01       	movw	r24, r28
    1ac6:	01 96       	adiw	r24, 0x01	; 1
    1ac8:	0e 94 9f 15 	call	0x2b3e	; 0x2b3e <LCD_RefreshScreen>
    1acc:	3c cf       	rjmp	.-392    	; 0x1946 <MainLoop+0x24>

00001ace <main>:
    1ace:	cf 93       	push	r28
    1ad0:	df 93       	push	r29
    1ad2:	cd b7       	in	r28, 0x3d	; 61
    1ad4:	de b7       	in	r29, 0x3e	; 62
    1ad6:	ce 59       	subi	r28, 0x9E	; 158
    1ad8:	d1 09       	sbc	r29, r1
    1ada:	0f b6       	in	r0, 0x3f	; 63
    1adc:	f8 94       	cli
    1ade:	de bf       	out	0x3e, r29	; 62
    1ae0:	0f be       	out	0x3f, r0	; 63
    1ae2:	cd bf       	out	0x3d, r28	; 61
    1ae4:	c3 56       	subi	r28, 0x63	; 99
    1ae6:	df 4f       	sbci	r29, 0xFF	; 255
    1ae8:	19 82       	std	Y+1, r1	; 0x01
    1aea:	18 82       	st	Y, r1
    1aec:	cd 59       	subi	r28, 0x9D	; 157
    1aee:	d0 40       	sbci	r29, 0x00	; 0
    1af0:	ae 01       	movw	r20, r28
    1af2:	4f 5f       	subi	r20, 0xFF	; 255
    1af4:	5f 4f       	sbci	r21, 0xFF	; 255
    1af6:	be 01       	movw	r22, r28
    1af8:	63 56       	subi	r22, 0x63	; 99
    1afa:	7f 4f       	sbci	r23, 0xFF	; 255
    1afc:	ce 01       	movw	r24, r28
    1afe:	8f 56       	subi	r24, 0x6F	; 111
    1b00:	9f 4f       	sbci	r25, 0xFF	; 255
    1b02:	0e 94 fa 0a 	call	0x15f4	; 0x15f4 <Initialization>
    1b06:	ae 01       	movw	r20, r28
    1b08:	4f 5f       	subi	r20, 0xFF	; 255
    1b0a:	5f 4f       	sbci	r21, 0xFF	; 255
    1b0c:	be 01       	movw	r22, r28
    1b0e:	63 56       	subi	r22, 0x63	; 99
    1b10:	7f 4f       	sbci	r23, 0xFF	; 255
    1b12:	ce 01       	movw	r24, r28
    1b14:	8f 56       	subi	r24, 0x6F	; 111
    1b16:	9f 4f       	sbci	r25, 0xFF	; 255
    1b18:	0e 94 91 0c 	call	0x1922	; 0x1922 <MainLoop>

00001b1c <DELAY_us>:
    1b1c:	00 97       	sbiw	r24, 0x00	; 0
    1b1e:	31 f0       	breq	.+12     	; 0x1b2c <DELAY_us+0x10>
    1b20:	25 e0       	ldi	r18, 0x05	; 5
    1b22:	2a 95       	dec	r18
    1b24:	f1 f7       	brne	.-4      	; 0x1b22 <DELAY_us+0x6>
    1b26:	00 00       	nop
    1b28:	01 97       	sbiw	r24, 0x01	; 1
    1b2a:	f8 cf       	rjmp	.-16     	; 0x1b1c <DELAY_us>
    1b2c:	08 95       	ret

00001b2e <DELAY_ms>:
    1b2e:	00 97       	sbiw	r24, 0x00	; 0
    1b30:	41 f0       	breq	.+16     	; 0x1b42 <DELAY_ms+0x14>
    1b32:	ef e9       	ldi	r30, 0x9F	; 159
    1b34:	ff e0       	ldi	r31, 0x0F	; 15
    1b36:	31 97       	sbiw	r30, 0x01	; 1
    1b38:	f1 f7       	brne	.-4      	; 0x1b36 <DELAY_ms+0x8>
    1b3a:	00 c0       	rjmp	.+0      	; 0x1b3c <DELAY_ms+0xe>
    1b3c:	00 00       	nop
    1b3e:	01 97       	sbiw	r24, 0x01	; 1
    1b40:	f6 cf       	rjmp	.-20     	; 0x1b2e <DELAY_ms>
    1b42:	08 95       	ret

00001b44 <EEPROM_WriteByte>:
    1b44:	e1 99       	sbic	0x1c, 1	; 28
    1b46:	fe cf       	rjmp	.-4      	; 0x1b44 <EEPROM_WriteByte>
    1b48:	9f bb       	out	0x1f, r25	; 31
    1b4a:	8e bb       	out	0x1e, r24	; 30
    1b4c:	6d bb       	out	0x1d, r22	; 29
    1b4e:	e2 9a       	sbi	0x1c, 2	; 28
    1b50:	e1 9a       	sbi	0x1c, 1	; 28
    1b52:	08 95       	ret

00001b54 <EEPROM_ReadByte>:
    1b54:	e1 99       	sbic	0x1c, 1	; 28
    1b56:	fe cf       	rjmp	.-4      	; 0x1b54 <EEPROM_ReadByte>
    1b58:	9f bb       	out	0x1f, r25	; 31
    1b5a:	8e bb       	out	0x1e, r24	; 30
    1b5c:	e0 9a       	sbi	0x1c, 0	; 28
    1b5e:	8d b3       	in	r24, 0x1d	; 29
    1b60:	08 95       	ret

00001b62 <EEPROM_WriteString>:
    1b62:	0f 93       	push	r16
    1b64:	1f 93       	push	r17
    1b66:	cf 93       	push	r28
    1b68:	df 93       	push	r29
    1b6a:	eb 01       	movw	r28, r22
    1b6c:	8c 01       	movw	r16, r24
    1b6e:	06 1b       	sub	r16, r22
    1b70:	17 0b       	sbc	r17, r23
    1b72:	ce 01       	movw	r24, r28
    1b74:	80 0f       	add	r24, r16
    1b76:	91 1f       	adc	r25, r17
    1b78:	69 91       	ld	r22, Y+
    1b7a:	0e 94 a2 0d 	call	0x1b44	; 0x1b44 <EEPROM_WriteByte>
    1b7e:	fe 01       	movw	r30, r28
    1b80:	31 97       	sbiw	r30, 0x01	; 1
    1b82:	80 81       	ld	r24, Z
    1b84:	81 11       	cpse	r24, r1
    1b86:	f5 cf       	rjmp	.-22     	; 0x1b72 <EEPROM_WriteString+0x10>
    1b88:	df 91       	pop	r29
    1b8a:	cf 91       	pop	r28
    1b8c:	1f 91       	pop	r17
    1b8e:	0f 91       	pop	r16
    1b90:	08 95       	ret

00001b92 <EEPROM_ReadString>:
    1b92:	0f 93       	push	r16
    1b94:	1f 93       	push	r17
    1b96:	cf 93       	push	r28
    1b98:	df 93       	push	r29
    1b9a:	eb 01       	movw	r28, r22
    1b9c:	8c 01       	movw	r16, r24
    1b9e:	06 1b       	sub	r16, r22
    1ba0:	17 0b       	sbc	r17, r23
    1ba2:	ce 01       	movw	r24, r28
    1ba4:	80 0f       	add	r24, r16
    1ba6:	91 1f       	adc	r25, r17
    1ba8:	0e 94 aa 0d 	call	0x1b54	; 0x1b54 <EEPROM_ReadByte>
    1bac:	89 93       	st	Y+, r24
    1bae:	81 11       	cpse	r24, r1
    1bb0:	f8 cf       	rjmp	.-16     	; 0x1ba2 <EEPROM_ReadString+0x10>
    1bb2:	df 91       	pop	r29
    1bb4:	cf 91       	pop	r28
    1bb6:	1f 91       	pop	r17
    1bb8:	0f 91       	pop	r16
    1bba:	08 95       	ret

00001bbc <GPIO_PinDirection>:
    1bbc:	28 2f       	mov	r18, r24
    1bbe:	27 70       	andi	r18, 0x07	; 7
    1bc0:	86 95       	lsr	r24
    1bc2:	86 95       	lsr	r24
    1bc4:	86 95       	lsr	r24
    1bc6:	81 30       	cpi	r24, 0x01	; 1
    1bc8:	b9 f0       	breq	.+46     	; 0x1bf8 <GPIO_PinDirection+0x3c>
    1bca:	28 f0       	brcs	.+10     	; 0x1bd6 <GPIO_PinDirection+0x1a>
    1bcc:	82 30       	cpi	r24, 0x02	; 2
    1bce:	29 f1       	breq	.+74     	; 0x1c1a <GPIO_PinDirection+0x5e>
    1bd0:	83 30       	cpi	r24, 0x03	; 3
    1bd2:	a1 f1       	breq	.+104    	; 0x1c3c <GPIO_PinDirection+0x80>
    1bd4:	08 95       	ret
    1bd6:	3a b3       	in	r19, 0x1a	; 26
    1bd8:	81 e0       	ldi	r24, 0x01	; 1
    1bda:	90 e0       	ldi	r25, 0x00	; 0
    1bdc:	02 2e       	mov	r0, r18
    1bde:	01 c0       	rjmp	.+2      	; 0x1be2 <GPIO_PinDirection+0x26>
    1be0:	88 0f       	add	r24, r24
    1be2:	0a 94       	dec	r0
    1be4:	ea f7       	brpl	.-6      	; 0x1be0 <GPIO_PinDirection+0x24>
    1be6:	66 23       	and	r22, r22
    1be8:	19 f0       	breq	.+6      	; 0x1bf0 <GPIO_PinDirection+0x34>
    1bea:	38 2b       	or	r19, r24
    1bec:	3a bb       	out	0x1a, r19	; 26
    1bee:	08 95       	ret
    1bf0:	80 95       	com	r24
    1bf2:	83 23       	and	r24, r19
    1bf4:	8a bb       	out	0x1a, r24	; 26
    1bf6:	08 95       	ret
    1bf8:	37 b3       	in	r19, 0x17	; 23
    1bfa:	81 e0       	ldi	r24, 0x01	; 1
    1bfc:	90 e0       	ldi	r25, 0x00	; 0
    1bfe:	02 2e       	mov	r0, r18
    1c00:	01 c0       	rjmp	.+2      	; 0x1c04 <GPIO_PinDirection+0x48>
    1c02:	88 0f       	add	r24, r24
    1c04:	0a 94       	dec	r0
    1c06:	ea f7       	brpl	.-6      	; 0x1c02 <GPIO_PinDirection+0x46>
    1c08:	66 23       	and	r22, r22
    1c0a:	19 f0       	breq	.+6      	; 0x1c12 <GPIO_PinDirection+0x56>
    1c0c:	38 2b       	or	r19, r24
    1c0e:	37 bb       	out	0x17, r19	; 23
    1c10:	08 95       	ret
    1c12:	80 95       	com	r24
    1c14:	83 23       	and	r24, r19
    1c16:	87 bb       	out	0x17, r24	; 23
    1c18:	08 95       	ret
    1c1a:	34 b3       	in	r19, 0x14	; 20
    1c1c:	81 e0       	ldi	r24, 0x01	; 1
    1c1e:	90 e0       	ldi	r25, 0x00	; 0
    1c20:	02 2e       	mov	r0, r18
    1c22:	01 c0       	rjmp	.+2      	; 0x1c26 <GPIO_PinDirection+0x6a>
    1c24:	88 0f       	add	r24, r24
    1c26:	0a 94       	dec	r0
    1c28:	ea f7       	brpl	.-6      	; 0x1c24 <GPIO_PinDirection+0x68>
    1c2a:	66 23       	and	r22, r22
    1c2c:	19 f0       	breq	.+6      	; 0x1c34 <GPIO_PinDirection+0x78>
    1c2e:	38 2b       	or	r19, r24
    1c30:	34 bb       	out	0x14, r19	; 20
    1c32:	08 95       	ret
    1c34:	80 95       	com	r24
    1c36:	83 23       	and	r24, r19
    1c38:	84 bb       	out	0x14, r24	; 20
    1c3a:	08 95       	ret
    1c3c:	31 b3       	in	r19, 0x11	; 17
    1c3e:	81 e0       	ldi	r24, 0x01	; 1
    1c40:	90 e0       	ldi	r25, 0x00	; 0
    1c42:	02 2e       	mov	r0, r18
    1c44:	01 c0       	rjmp	.+2      	; 0x1c48 <GPIO_PinDirection+0x8c>
    1c46:	88 0f       	add	r24, r24
    1c48:	0a 94       	dec	r0
    1c4a:	ea f7       	brpl	.-6      	; 0x1c46 <GPIO_PinDirection+0x8a>
    1c4c:	66 23       	and	r22, r22
    1c4e:	19 f0       	breq	.+6      	; 0x1c56 <GPIO_PinDirection+0x9a>
    1c50:	38 2b       	or	r19, r24
    1c52:	31 bb       	out	0x11, r19	; 17
    1c54:	08 95       	ret
    1c56:	80 95       	com	r24
    1c58:	83 23       	and	r24, r19
    1c5a:	81 bb       	out	0x11, r24	; 17
    1c5c:	08 95       	ret

00001c5e <GPIO_PinWrite>:
    1c5e:	28 2f       	mov	r18, r24
    1c60:	27 70       	andi	r18, 0x07	; 7
    1c62:	86 95       	lsr	r24
    1c64:	86 95       	lsr	r24
    1c66:	86 95       	lsr	r24
    1c68:	81 30       	cpi	r24, 0x01	; 1
    1c6a:	b9 f0       	breq	.+46     	; 0x1c9a <GPIO_PinWrite+0x3c>
    1c6c:	28 f0       	brcs	.+10     	; 0x1c78 <GPIO_PinWrite+0x1a>
    1c6e:	82 30       	cpi	r24, 0x02	; 2
    1c70:	29 f1       	breq	.+74     	; 0x1cbc <GPIO_PinWrite+0x5e>
    1c72:	83 30       	cpi	r24, 0x03	; 3
    1c74:	a1 f1       	breq	.+104    	; 0x1cde <GPIO_PinWrite+0x80>
    1c76:	08 95       	ret
    1c78:	3b b3       	in	r19, 0x1b	; 27
    1c7a:	81 e0       	ldi	r24, 0x01	; 1
    1c7c:	90 e0       	ldi	r25, 0x00	; 0
    1c7e:	02 2e       	mov	r0, r18
    1c80:	01 c0       	rjmp	.+2      	; 0x1c84 <GPIO_PinWrite+0x26>
    1c82:	88 0f       	add	r24, r24
    1c84:	0a 94       	dec	r0
    1c86:	ea f7       	brpl	.-6      	; 0x1c82 <GPIO_PinWrite+0x24>
    1c88:	66 23       	and	r22, r22
    1c8a:	19 f0       	breq	.+6      	; 0x1c92 <GPIO_PinWrite+0x34>
    1c8c:	38 2b       	or	r19, r24
    1c8e:	3b bb       	out	0x1b, r19	; 27
    1c90:	08 95       	ret
    1c92:	80 95       	com	r24
    1c94:	83 23       	and	r24, r19
    1c96:	8b bb       	out	0x1b, r24	; 27
    1c98:	08 95       	ret
    1c9a:	38 b3       	in	r19, 0x18	; 24
    1c9c:	81 e0       	ldi	r24, 0x01	; 1
    1c9e:	90 e0       	ldi	r25, 0x00	; 0
    1ca0:	02 2e       	mov	r0, r18
    1ca2:	01 c0       	rjmp	.+2      	; 0x1ca6 <GPIO_PinWrite+0x48>
    1ca4:	88 0f       	add	r24, r24
    1ca6:	0a 94       	dec	r0
    1ca8:	ea f7       	brpl	.-6      	; 0x1ca4 <GPIO_PinWrite+0x46>
    1caa:	66 23       	and	r22, r22
    1cac:	19 f0       	breq	.+6      	; 0x1cb4 <GPIO_PinWrite+0x56>
    1cae:	38 2b       	or	r19, r24
    1cb0:	38 bb       	out	0x18, r19	; 24
    1cb2:	08 95       	ret
    1cb4:	80 95       	com	r24
    1cb6:	83 23       	and	r24, r19
    1cb8:	88 bb       	out	0x18, r24	; 24
    1cba:	08 95       	ret
    1cbc:	35 b3       	in	r19, 0x15	; 21
    1cbe:	81 e0       	ldi	r24, 0x01	; 1
    1cc0:	90 e0       	ldi	r25, 0x00	; 0
    1cc2:	02 2e       	mov	r0, r18
    1cc4:	01 c0       	rjmp	.+2      	; 0x1cc8 <GPIO_PinWrite+0x6a>
    1cc6:	88 0f       	add	r24, r24
    1cc8:	0a 94       	dec	r0
    1cca:	ea f7       	brpl	.-6      	; 0x1cc6 <GPIO_PinWrite+0x68>
    1ccc:	66 23       	and	r22, r22
    1cce:	19 f0       	breq	.+6      	; 0x1cd6 <GPIO_PinWrite+0x78>
    1cd0:	38 2b       	or	r19, r24
    1cd2:	35 bb       	out	0x15, r19	; 21
    1cd4:	08 95       	ret
    1cd6:	80 95       	com	r24
    1cd8:	83 23       	and	r24, r19
    1cda:	85 bb       	out	0x15, r24	; 21
    1cdc:	08 95       	ret
    1cde:	32 b3       	in	r19, 0x12	; 18
    1ce0:	81 e0       	ldi	r24, 0x01	; 1
    1ce2:	90 e0       	ldi	r25, 0x00	; 0
    1ce4:	02 2e       	mov	r0, r18
    1ce6:	01 c0       	rjmp	.+2      	; 0x1cea <GPIO_PinWrite+0x8c>
    1ce8:	88 0f       	add	r24, r24
    1cea:	0a 94       	dec	r0
    1cec:	ea f7       	brpl	.-6      	; 0x1ce8 <GPIO_PinWrite+0x8a>
    1cee:	66 23       	and	r22, r22
    1cf0:	19 f0       	breq	.+6      	; 0x1cf8 <GPIO_PinWrite+0x9a>
    1cf2:	38 2b       	or	r19, r24
    1cf4:	32 bb       	out	0x12, r19	; 18
    1cf6:	08 95       	ret
    1cf8:	80 95       	com	r24
    1cfa:	83 23       	and	r24, r19
    1cfc:	82 bb       	out	0x12, r24	; 18
    1cfe:	08 95       	ret

00001d00 <GPIO_PinRead>:
    1d00:	28 2f       	mov	r18, r24
    1d02:	27 70       	andi	r18, 0x07	; 7
    1d04:	86 95       	lsr	r24
    1d06:	86 95       	lsr	r24
    1d08:	86 95       	lsr	r24
    1d0a:	81 30       	cpi	r24, 0x01	; 1
    1d0c:	49 f0       	breq	.+18     	; 0x1d20 <GPIO_PinRead+0x20>
    1d0e:	30 f0       	brcs	.+12     	; 0x1d1c <GPIO_PinRead+0x1c>
    1d10:	82 30       	cpi	r24, 0x02	; 2
    1d12:	41 f0       	breq	.+16     	; 0x1d24 <GPIO_PinRead+0x24>
    1d14:	83 30       	cpi	r24, 0x03	; 3
    1d16:	79 f4       	brne	.+30     	; 0x1d36 <GPIO_PinRead+0x36>
    1d18:	80 b3       	in	r24, 0x10	; 16
    1d1a:	05 c0       	rjmp	.+10     	; 0x1d26 <GPIO_PinRead+0x26>
    1d1c:	89 b3       	in	r24, 0x19	; 25
    1d1e:	03 c0       	rjmp	.+6      	; 0x1d26 <GPIO_PinRead+0x26>
    1d20:	86 b3       	in	r24, 0x16	; 22
    1d22:	01 c0       	rjmp	.+2      	; 0x1d26 <GPIO_PinRead+0x26>
    1d24:	83 b3       	in	r24, 0x13	; 19
    1d26:	90 e0       	ldi	r25, 0x00	; 0
    1d28:	02 c0       	rjmp	.+4      	; 0x1d2e <GPIO_PinRead+0x2e>
    1d2a:	95 95       	asr	r25
    1d2c:	87 95       	ror	r24
    1d2e:	2a 95       	dec	r18
    1d30:	e2 f7       	brpl	.-8      	; 0x1d2a <GPIO_PinRead+0x2a>
    1d32:	81 70       	andi	r24, 0x01	; 1
    1d34:	08 95       	ret
    1d36:	80 e0       	ldi	r24, 0x00	; 0
    1d38:	08 95       	ret

00001d3a <lcd_SendHigherNibble>:
    1d3a:	cf 93       	push	r28
    1d3c:	c8 2f       	mov	r28, r24
    1d3e:	84 fb       	bst	r24, 4
    1d40:	66 27       	eor	r22, r22
    1d42:	60 f9       	bld	r22, 0
    1d44:	80 91 9e 02 	lds	r24, 0x029E
    1d48:	0e 94 2f 0e 	call	0x1c5e	; 0x1c5e <GPIO_PinWrite>
    1d4c:	c5 fb       	bst	r28, 5
    1d4e:	66 27       	eor	r22, r22
    1d50:	60 f9       	bld	r22, 0
    1d52:	80 91 9f 02 	lds	r24, 0x029F
    1d56:	0e 94 2f 0e 	call	0x1c5e	; 0x1c5e <GPIO_PinWrite>
    1d5a:	c6 fb       	bst	r28, 6
    1d5c:	66 27       	eor	r22, r22
    1d5e:	60 f9       	bld	r22, 0
    1d60:	80 91 a0 02 	lds	r24, 0x02A0
    1d64:	0e 94 2f 0e 	call	0x1c5e	; 0x1c5e <GPIO_PinWrite>
    1d68:	6c 2f       	mov	r22, r28
    1d6a:	66 1f       	adc	r22, r22
    1d6c:	66 27       	eor	r22, r22
    1d6e:	66 1f       	adc	r22, r22
    1d70:	80 91 a1 02 	lds	r24, 0x02A1
    1d74:	cf 91       	pop	r28
    1d76:	0c 94 2f 0e 	jmp	0x1c5e	; 0x1c5e <GPIO_PinWrite>

00001d7a <lcd_SendCmdSignals>:
    1d7a:	cf 93       	push	r28
    1d7c:	df 93       	push	r29
    1d7e:	60 e0       	ldi	r22, 0x00	; 0
    1d80:	80 91 97 02 	lds	r24, 0x0297
    1d84:	0e 94 2f 0e 	call	0x1c5e	; 0x1c5e <GPIO_PinWrite>
    1d88:	60 e0       	ldi	r22, 0x00	; 0
    1d8a:	80 91 98 02 	lds	r24, 0x0298
    1d8e:	0e 94 2f 0e 	call	0x1c5e	; 0x1c5e <GPIO_PinWrite>
    1d92:	c9 e9       	ldi	r28, 0x99	; 153
    1d94:	d2 e0       	ldi	r29, 0x02	; 2
    1d96:	61 e0       	ldi	r22, 0x01	; 1
    1d98:	88 81       	ld	r24, Y
    1d9a:	0e 94 2f 0e 	call	0x1c5e	; 0x1c5e <GPIO_PinWrite>
    1d9e:	8a e0       	ldi	r24, 0x0A	; 10
    1da0:	90 e0       	ldi	r25, 0x00	; 0
    1da2:	0e 94 8e 0d 	call	0x1b1c	; 0x1b1c <DELAY_us>
    1da6:	60 e0       	ldi	r22, 0x00	; 0
    1da8:	88 81       	ld	r24, Y
    1daa:	df 91       	pop	r29
    1dac:	cf 91       	pop	r28
    1dae:	0c 94 2f 0e 	jmp	0x1c5e	; 0x1c5e <GPIO_PinWrite>

00001db2 <lcd_SendLowerNibble>:
    1db2:	cf 93       	push	r28
    1db4:	c8 2f       	mov	r28, r24
    1db6:	68 2f       	mov	r22, r24
    1db8:	61 70       	andi	r22, 0x01	; 1
    1dba:	80 91 9a 02 	lds	r24, 0x029A
    1dbe:	0e 94 2f 0e 	call	0x1c5e	; 0x1c5e <GPIO_PinWrite>
    1dc2:	c1 fb       	bst	r28, 1
    1dc4:	66 27       	eor	r22, r22
    1dc6:	60 f9       	bld	r22, 0
    1dc8:	80 91 9b 02 	lds	r24, 0x029B
    1dcc:	0e 94 2f 0e 	call	0x1c5e	; 0x1c5e <GPIO_PinWrite>
    1dd0:	c2 fb       	bst	r28, 2
    1dd2:	66 27       	eor	r22, r22
    1dd4:	60 f9       	bld	r22, 0
    1dd6:	80 91 9c 02 	lds	r24, 0x029C
    1dda:	0e 94 2f 0e 	call	0x1c5e	; 0x1c5e <GPIO_PinWrite>
    1dde:	c3 fb       	bst	r28, 3
    1de0:	66 27       	eor	r22, r22
    1de2:	60 f9       	bld	r22, 0
    1de4:	80 91 9d 02 	lds	r24, 0x029D
    1de8:	cf 91       	pop	r28
    1dea:	0c 94 2f 0e 	jmp	0x1c5e	; 0x1c5e <GPIO_PinWrite>

00001dee <lcd_SendDataSignals>:
    1dee:	cf 93       	push	r28
    1df0:	df 93       	push	r29
    1df2:	61 e0       	ldi	r22, 0x01	; 1
    1df4:	80 91 97 02 	lds	r24, 0x0297
    1df8:	0e 94 2f 0e 	call	0x1c5e	; 0x1c5e <GPIO_PinWrite>
    1dfc:	60 e0       	ldi	r22, 0x00	; 0
    1dfe:	80 91 98 02 	lds	r24, 0x0298
    1e02:	0e 94 2f 0e 	call	0x1c5e	; 0x1c5e <GPIO_PinWrite>
    1e06:	c9 e9       	ldi	r28, 0x99	; 153
    1e08:	d2 e0       	ldi	r29, 0x02	; 2
    1e0a:	61 e0       	ldi	r22, 0x01	; 1
    1e0c:	88 81       	ld	r24, Y
    1e0e:	0e 94 2f 0e 	call	0x1c5e	; 0x1c5e <GPIO_PinWrite>
    1e12:	8a e0       	ldi	r24, 0x0A	; 10
    1e14:	90 e0       	ldi	r25, 0x00	; 0
    1e16:	0e 94 8e 0d 	call	0x1b1c	; 0x1b1c <DELAY_us>
    1e1a:	60 e0       	ldi	r22, 0x00	; 0
    1e1c:	88 81       	ld	r24, Y
    1e1e:	df 91       	pop	r29
    1e20:	cf 91       	pop	r28
    1e22:	0c 94 2f 0e 	jmp	0x1c5e	; 0x1c5e <GPIO_PinWrite>

00001e26 <lcd_BusyCheck>:
    1e26:	cf 93       	push	r28
    1e28:	80 91 98 02 	lds	r24, 0x0298
    1e2c:	8f 3f       	cpi	r24, 0xFF	; 255
    1e2e:	09 f4       	brne	.+2      	; 0x1e32 <lcd_BusyCheck+0xc>
    1e30:	44 c0       	rjmp	.+136    	; 0x1eba <lcd_BusyCheck+0x94>
    1e32:	60 e0       	ldi	r22, 0x00	; 0
    1e34:	80 91 a1 02 	lds	r24, 0x02A1
    1e38:	0e 94 de 0d 	call	0x1bbc	; 0x1bbc <GPIO_PinDirection>
    1e3c:	60 e0       	ldi	r22, 0x00	; 0
    1e3e:	80 91 97 02 	lds	r24, 0x0297
    1e42:	0e 94 2f 0e 	call	0x1c5e	; 0x1c5e <GPIO_PinWrite>
    1e46:	61 e0       	ldi	r22, 0x01	; 1
    1e48:	80 91 98 02 	lds	r24, 0x0298
    1e4c:	0e 94 2f 0e 	call	0x1c5e	; 0x1c5e <GPIO_PinWrite>
    1e50:	60 e0       	ldi	r22, 0x00	; 0
    1e52:	80 91 99 02 	lds	r24, 0x0299
    1e56:	0e 94 2f 0e 	call	0x1c5e	; 0x1c5e <GPIO_PinWrite>
    1e5a:	8a e0       	ldi	r24, 0x0A	; 10
    1e5c:	90 e0       	ldi	r25, 0x00	; 0
    1e5e:	0e 94 8e 0d 	call	0x1b1c	; 0x1b1c <DELAY_us>
    1e62:	61 e0       	ldi	r22, 0x01	; 1
    1e64:	80 91 99 02 	lds	r24, 0x0299
    1e68:	0e 94 2f 0e 	call	0x1c5e	; 0x1c5e <GPIO_PinWrite>
    1e6c:	8a e0       	ldi	r24, 0x0A	; 10
    1e6e:	90 e0       	ldi	r25, 0x00	; 0
    1e70:	0e 94 8e 0d 	call	0x1b1c	; 0x1b1c <DELAY_us>
    1e74:	80 91 a1 02 	lds	r24, 0x02A1
    1e78:	0e 94 80 0e 	call	0x1d00	; 0x1d00 <GPIO_PinRead>
    1e7c:	c8 2f       	mov	r28, r24
    1e7e:	80 91 96 02 	lds	r24, 0x0296
    1e82:	84 30       	cpi	r24, 0x04	; 4
    1e84:	91 f4       	brne	.+36     	; 0x1eaa <lcd_BusyCheck+0x84>
    1e86:	60 e0       	ldi	r22, 0x00	; 0
    1e88:	80 91 99 02 	lds	r24, 0x0299
    1e8c:	0e 94 2f 0e 	call	0x1c5e	; 0x1c5e <GPIO_PinWrite>
    1e90:	8a e0       	ldi	r24, 0x0A	; 10
    1e92:	90 e0       	ldi	r25, 0x00	; 0
    1e94:	0e 94 8e 0d 	call	0x1b1c	; 0x1b1c <DELAY_us>
    1e98:	61 e0       	ldi	r22, 0x01	; 1
    1e9a:	80 91 99 02 	lds	r24, 0x0299
    1e9e:	0e 94 2f 0e 	call	0x1c5e	; 0x1c5e <GPIO_PinWrite>
    1ea2:	8a e0       	ldi	r24, 0x0A	; 10
    1ea4:	90 e0       	ldi	r25, 0x00	; 0
    1ea6:	0e 94 8e 0d 	call	0x1b1c	; 0x1b1c <DELAY_us>
    1eaa:	c1 11       	cpse	r28, r1
    1eac:	d1 cf       	rjmp	.-94     	; 0x1e50 <lcd_BusyCheck+0x2a>
    1eae:	61 e0       	ldi	r22, 0x01	; 1
    1eb0:	80 91 a1 02 	lds	r24, 0x02A1
    1eb4:	cf 91       	pop	r28
    1eb6:	0c 94 de 0d 	jmp	0x1bbc	; 0x1bbc <GPIO_PinDirection>
    1eba:	81 e0       	ldi	r24, 0x01	; 1
    1ebc:	90 e0       	ldi	r25, 0x00	; 0
    1ebe:	cf 91       	pop	r28
    1ec0:	0c 94 97 0d 	jmp	0x1b2e	; 0x1b2e <DELAY_ms>

00001ec4 <LCD_SetUp>:
    1ec4:	8f 92       	push	r8
    1ec6:	9f 92       	push	r9
    1ec8:	af 92       	push	r10
    1eca:	bf 92       	push	r11
    1ecc:	cf 92       	push	r12
    1ece:	df 92       	push	r13
    1ed0:	ef 92       	push	r14
    1ed2:	ff 92       	push	r15
    1ed4:	0f 93       	push	r16
    1ed6:	1f 93       	push	r17
    1ed8:	cf 93       	push	r28
    1eda:	df 93       	push	r29
    1edc:	cd b7       	in	r28, 0x3d	; 61
    1ede:	de b7       	in	r29, 0x3e	; 62
    1ee0:	d8 2e       	mov	r13, r24
    1ee2:	16 2f       	mov	r17, r22
    1ee4:	f4 2e       	mov	r15, r20
    1ee6:	9f 84       	ldd	r9, Y+15	; 0x0f
    1ee8:	b8 88       	ldd	r11, Y+16	; 0x10
    1eea:	80 93 97 02 	sts	0x0297, r24
    1eee:	60 93 98 02 	sts	0x0298, r22
    1ef2:	40 93 99 02 	sts	0x0299, r20
    1ef6:	20 93 9a 02 	sts	0x029A, r18
    1efa:	00 93 9b 02 	sts	0x029B, r16
    1efe:	e0 92 9c 02 	sts	0x029C, r14
    1f02:	c0 92 9d 02 	sts	0x029D, r12
    1f06:	a0 92 9e 02 	sts	0x029E, r10
    1f0a:	80 92 9f 02 	sts	0x029F, r8
    1f0e:	90 92 a0 02 	sts	0x02A0, r9
    1f12:	b0 92 a1 02 	sts	0x02A1, r11
    1f16:	2f 3f       	cpi	r18, 0xFF	; 255
    1f18:	39 f0       	breq	.+14     	; 0x1f28 <LCD_SetUp+0x64>
    1f1a:	0f 3f       	cpi	r16, 0xFF	; 255
    1f1c:	29 f0       	breq	.+10     	; 0x1f28 <LCD_SetUp+0x64>
    1f1e:	8f ef       	ldi	r24, 0xFF	; 255
    1f20:	e8 16       	cp	r14, r24
    1f22:	11 f0       	breq	.+4      	; 0x1f28 <LCD_SetUp+0x64>
    1f24:	c8 12       	cpse	r12, r24
    1f26:	04 c0       	rjmp	.+8      	; 0x1f30 <LCD_SetUp+0x6c>
    1f28:	84 e0       	ldi	r24, 0x04	; 4
    1f2a:	80 93 96 02 	sts	0x0296, r24
    1f2e:	13 c0       	rjmp	.+38     	; 0x1f56 <LCD_SetUp+0x92>
    1f30:	88 e0       	ldi	r24, 0x08	; 8
    1f32:	80 93 96 02 	sts	0x0296, r24
    1f36:	61 e0       	ldi	r22, 0x01	; 1
    1f38:	82 2f       	mov	r24, r18
    1f3a:	0e 94 de 0d 	call	0x1bbc	; 0x1bbc <GPIO_PinDirection>
    1f3e:	61 e0       	ldi	r22, 0x01	; 1
    1f40:	80 2f       	mov	r24, r16
    1f42:	0e 94 de 0d 	call	0x1bbc	; 0x1bbc <GPIO_PinDirection>
    1f46:	61 e0       	ldi	r22, 0x01	; 1
    1f48:	8e 2d       	mov	r24, r14
    1f4a:	0e 94 de 0d 	call	0x1bbc	; 0x1bbc <GPIO_PinDirection>
    1f4e:	61 e0       	ldi	r22, 0x01	; 1
    1f50:	8c 2d       	mov	r24, r12
    1f52:	0e 94 de 0d 	call	0x1bbc	; 0x1bbc <GPIO_PinDirection>
    1f56:	61 e0       	ldi	r22, 0x01	; 1
    1f58:	8d 2d       	mov	r24, r13
    1f5a:	0e 94 de 0d 	call	0x1bbc	; 0x1bbc <GPIO_PinDirection>
    1f5e:	61 e0       	ldi	r22, 0x01	; 1
    1f60:	81 2f       	mov	r24, r17
    1f62:	0e 94 de 0d 	call	0x1bbc	; 0x1bbc <GPIO_PinDirection>
    1f66:	61 e0       	ldi	r22, 0x01	; 1
    1f68:	8f 2d       	mov	r24, r15
    1f6a:	0e 94 de 0d 	call	0x1bbc	; 0x1bbc <GPIO_PinDirection>
    1f6e:	61 e0       	ldi	r22, 0x01	; 1
    1f70:	8a 2d       	mov	r24, r10
    1f72:	0e 94 de 0d 	call	0x1bbc	; 0x1bbc <GPIO_PinDirection>
    1f76:	61 e0       	ldi	r22, 0x01	; 1
    1f78:	88 2d       	mov	r24, r8
    1f7a:	0e 94 de 0d 	call	0x1bbc	; 0x1bbc <GPIO_PinDirection>
    1f7e:	61 e0       	ldi	r22, 0x01	; 1
    1f80:	89 2d       	mov	r24, r9
    1f82:	0e 94 de 0d 	call	0x1bbc	; 0x1bbc <GPIO_PinDirection>
    1f86:	61 e0       	ldi	r22, 0x01	; 1
    1f88:	8b 2d       	mov	r24, r11
    1f8a:	df 91       	pop	r29
    1f8c:	cf 91       	pop	r28
    1f8e:	1f 91       	pop	r17
    1f90:	0f 91       	pop	r16
    1f92:	ff 90       	pop	r15
    1f94:	ef 90       	pop	r14
    1f96:	df 90       	pop	r13
    1f98:	cf 90       	pop	r12
    1f9a:	bf 90       	pop	r11
    1f9c:	af 90       	pop	r10
    1f9e:	9f 90       	pop	r9
    1fa0:	8f 90       	pop	r8
    1fa2:	0c 94 de 0d 	jmp	0x1bbc	; 0x1bbc <GPIO_PinDirection>

00001fa6 <LCD_CmdWrite>:
    1fa6:	cf 93       	push	r28
    1fa8:	c8 2f       	mov	r28, r24
    1faa:	0e 94 13 0f 	call	0x1e26	; 0x1e26 <lcd_BusyCheck>
    1fae:	80 91 96 02 	lds	r24, 0x0296
    1fb2:	88 30       	cpi	r24, 0x08	; 8
    1fb4:	21 f4       	brne	.+8      	; 0x1fbe <LCD_CmdWrite+0x18>
    1fb6:	8c 2f       	mov	r24, r28
    1fb8:	0e 94 d9 0e 	call	0x1db2	; 0x1db2 <lcd_SendLowerNibble>
    1fbc:	07 c0       	rjmp	.+14     	; 0x1fcc <LCD_CmdWrite+0x26>
    1fbe:	8c 2f       	mov	r24, r28
    1fc0:	0e 94 9d 0e 	call	0x1d3a	; 0x1d3a <lcd_SendHigherNibble>
    1fc4:	0e 94 bd 0e 	call	0x1d7a	; 0x1d7a <lcd_SendCmdSignals>
    1fc8:	c2 95       	swap	r28
    1fca:	c0 7f       	andi	r28, 0xF0	; 240
    1fcc:	8c 2f       	mov	r24, r28
    1fce:	0e 94 9d 0e 	call	0x1d3a	; 0x1d3a <lcd_SendHigherNibble>
    1fd2:	cf 91       	pop	r28
    1fd4:	0c 94 bd 0e 	jmp	0x1d7a	; 0x1d7a <lcd_SendCmdSignals>

00001fd8 <LCD_GoToLine>:
    1fd8:	90 91 94 02 	lds	r25, 0x0294
    1fdc:	89 17       	cp	r24, r25
    1fde:	58 f4       	brcc	.+22     	; 0x1ff6 <LCD_GoToLine+0x1e>
    1fe0:	10 92 a2 02 	sts	0x02A2, r1
    1fe4:	80 93 a3 02 	sts	0x02A3, r24
    1fe8:	e8 2f       	mov	r30, r24
    1fea:	f0 e0       	ldi	r31, 0x00	; 0
    1fec:	e0 5a       	subi	r30, 0xA0	; 160
    1fee:	ff 4f       	sbci	r31, 0xFF	; 255
    1ff0:	80 81       	ld	r24, Z
    1ff2:	0c 94 d3 0f 	jmp	0x1fa6	; 0x1fa6 <LCD_CmdWrite>
    1ff6:	08 95       	ret

00001ff8 <LCD_Clear>:
    1ff8:	81 e0       	ldi	r24, 0x01	; 1
    1ffa:	0e 94 d3 0f 	call	0x1fa6	; 0x1fa6 <LCD_CmdWrite>
    1ffe:	80 e0       	ldi	r24, 0x00	; 0
    2000:	0c 94 ec 0f 	jmp	0x1fd8	; 0x1fd8 <LCD_GoToLine>

00002004 <LCD_Init>:
    2004:	60 93 95 02 	sts	0x0295, r22
    2008:	80 93 94 02 	sts	0x0294, r24
    200c:	83 30       	cpi	r24, 0x03	; 3
    200e:	40 f0       	brcs	.+16     	; 0x2020 <LCD_Init+0x1c>
    2010:	6f 70       	andi	r22, 0x0F	; 15
    2012:	80 e9       	ldi	r24, 0x90	; 144
    2014:	86 0f       	add	r24, r22
    2016:	80 93 62 00 	sts	0x0062, r24
    201a:	60 53       	subi	r22, 0x30	; 48
    201c:	60 93 63 00 	sts	0x0063, r22
    2020:	84 e6       	ldi	r24, 0x64	; 100
    2022:	90 e0       	ldi	r25, 0x00	; 0
    2024:	0e 94 97 0d 	call	0x1b2e	; 0x1b2e <DELAY_ms>
    2028:	80 91 96 02 	lds	r24, 0x0296
    202c:	88 30       	cpi	r24, 0x08	; 8
    202e:	11 f4       	brne	.+4      	; 0x2034 <LCD_Init+0x30>
    2030:	88 e3       	ldi	r24, 0x38	; 56
    2032:	27 c0       	rjmp	.+78     	; 0x2082 <LCD_Init+0x7e>
    2034:	84 30       	cpi	r24, 0x04	; 4
    2036:	39 f5       	brne	.+78     	; 0x2086 <LCD_Init+0x82>
    2038:	80 e3       	ldi	r24, 0x30	; 48
    203a:	0e 94 9d 0e 	call	0x1d3a	; 0x1d3a <lcd_SendHigherNibble>
    203e:	0e 94 bd 0e 	call	0x1d7a	; 0x1d7a <lcd_SendCmdSignals>
    2042:	84 e6       	ldi	r24, 0x64	; 100
    2044:	90 e0       	ldi	r25, 0x00	; 0
    2046:	0e 94 97 0d 	call	0x1b2e	; 0x1b2e <DELAY_ms>
    204a:	80 e3       	ldi	r24, 0x30	; 48
    204c:	0e 94 9d 0e 	call	0x1d3a	; 0x1d3a <lcd_SendHigherNibble>
    2050:	0e 94 bd 0e 	call	0x1d7a	; 0x1d7a <lcd_SendCmdSignals>
    2054:	88 ec       	ldi	r24, 0xC8	; 200
    2056:	90 e0       	ldi	r25, 0x00	; 0
    2058:	0e 94 8e 0d 	call	0x1b1c	; 0x1b1c <DELAY_us>
    205c:	80 e3       	ldi	r24, 0x30	; 48
    205e:	0e 94 9d 0e 	call	0x1d3a	; 0x1d3a <lcd_SendHigherNibble>
    2062:	0e 94 bd 0e 	call	0x1d7a	; 0x1d7a <lcd_SendCmdSignals>
    2066:	88 ec       	ldi	r24, 0xC8	; 200
    2068:	90 e0       	ldi	r25, 0x00	; 0
    206a:	0e 94 8e 0d 	call	0x1b1c	; 0x1b1c <DELAY_us>
    206e:	80 e2       	ldi	r24, 0x20	; 32
    2070:	0e 94 9d 0e 	call	0x1d3a	; 0x1d3a <lcd_SendHigherNibble>
    2074:	0e 94 bd 0e 	call	0x1d7a	; 0x1d7a <lcd_SendCmdSignals>
    2078:	88 ec       	ldi	r24, 0xC8	; 200
    207a:	90 e0       	ldi	r25, 0x00	; 0
    207c:	0e 94 8e 0d 	call	0x1b1c	; 0x1b1c <DELAY_us>
    2080:	88 e2       	ldi	r24, 0x28	; 40
    2082:	0e 94 d3 0f 	call	0x1fa6	; 0x1fa6 <LCD_CmdWrite>
    2086:	8e e0       	ldi	r24, 0x0E	; 14
    2088:	0e 94 d3 0f 	call	0x1fa6	; 0x1fa6 <LCD_CmdWrite>
    208c:	0c 94 fc 0f 	jmp	0x1ff8	; 0x1ff8 <LCD_Clear>

00002090 <LCD_GoToNextLine>:
    2090:	80 91 a3 02 	lds	r24, 0x02A3
    2094:	8f 5f       	subi	r24, 0xFF	; 255
    2096:	80 93 a3 02 	sts	0x02A3, r24
    209a:	10 92 a2 02 	sts	0x02A2, r1
    209e:	90 91 94 02 	lds	r25, 0x0294
    20a2:	89 17       	cp	r24, r25
    20a4:	10 f0       	brcs	.+4      	; 0x20aa <LCD_GoToNextLine+0x1a>
    20a6:	10 92 a3 02 	sts	0x02A3, r1
    20aa:	e0 91 a3 02 	lds	r30, 0x02A3
    20ae:	f0 e0       	ldi	r31, 0x00	; 0
    20b0:	e0 5a       	subi	r30, 0xA0	; 160
    20b2:	ff 4f       	sbci	r31, 0xFF	; 255
    20b4:	80 81       	ld	r24, Z
    20b6:	0c 94 d3 0f 	jmp	0x1fa6	; 0x1fa6 <LCD_CmdWrite>

000020ba <LCD_SetCursor>:
    20ba:	90 91 94 02 	lds	r25, 0x0294
    20be:	89 17       	cp	r24, r25
    20c0:	80 f4       	brcc	.+32     	; 0x20e2 <LCD_SetCursor+0x28>
    20c2:	90 91 95 02 	lds	r25, 0x0295
    20c6:	69 17       	cp	r22, r25
    20c8:	60 f4       	brcc	.+24     	; 0x20e2 <LCD_SetCursor+0x28>
    20ca:	60 93 a2 02 	sts	0x02A2, r22
    20ce:	80 93 a3 02 	sts	0x02A3, r24
    20d2:	e8 2f       	mov	r30, r24
    20d4:	f0 e0       	ldi	r31, 0x00	; 0
    20d6:	e0 5a       	subi	r30, 0xA0	; 160
    20d8:	ff 4f       	sbci	r31, 0xFF	; 255
    20da:	80 81       	ld	r24, Z
    20dc:	86 0f       	add	r24, r22
    20de:	0c 94 d3 0f 	jmp	0x1fa6	; 0x1fa6 <LCD_CmdWrite>
    20e2:	08 95       	ret

000020e4 <LCD_DisplayChar>:
    20e4:	cf 93       	push	r28
    20e6:	c8 2f       	mov	r28, r24
    20e8:	90 91 a2 02 	lds	r25, 0x02A2
    20ec:	80 91 95 02 	lds	r24, 0x0295
    20f0:	98 17       	cp	r25, r24
    20f2:	60 f4       	brcc	.+24     	; 0x210c <LCD_DisplayChar+0x28>
    20f4:	ca 30       	cpi	r28, 0x0A	; 10
    20f6:	51 f0       	breq	.+20     	; 0x210c <LCD_DisplayChar+0x28>
    20f8:	0e 94 13 0f 	call	0x1e26	; 0x1e26 <lcd_BusyCheck>
    20fc:	80 91 96 02 	lds	r24, 0x0296
    2100:	88 30       	cpi	r24, 0x08	; 8
    2102:	49 f4       	brne	.+18     	; 0x2116 <LCD_DisplayChar+0x32>
    2104:	8c 2f       	mov	r24, r28
    2106:	0e 94 d9 0e 	call	0x1db2	; 0x1db2 <lcd_SendLowerNibble>
    210a:	0c c0       	rjmp	.+24     	; 0x2124 <LCD_DisplayChar+0x40>
    210c:	0e 94 48 10 	call	0x2090	; 0x2090 <LCD_GoToNextLine>
    2110:	ca 30       	cpi	r28, 0x0A	; 10
    2112:	91 f0       	breq	.+36     	; 0x2138 <LCD_DisplayChar+0x54>
    2114:	f1 cf       	rjmp	.-30     	; 0x20f8 <LCD_DisplayChar+0x14>
    2116:	8c 2f       	mov	r24, r28
    2118:	0e 94 9d 0e 	call	0x1d3a	; 0x1d3a <lcd_SendHigherNibble>
    211c:	0e 94 f7 0e 	call	0x1dee	; 0x1dee <lcd_SendDataSignals>
    2120:	c2 95       	swap	r28
    2122:	c0 7f       	andi	r28, 0xF0	; 240
    2124:	8c 2f       	mov	r24, r28
    2126:	0e 94 9d 0e 	call	0x1d3a	; 0x1d3a <lcd_SendHigherNibble>
    212a:	0e 94 f7 0e 	call	0x1dee	; 0x1dee <lcd_SendDataSignals>
    212e:	80 91 a2 02 	lds	r24, 0x02A2
    2132:	8f 5f       	subi	r24, 0xFF	; 255
    2134:	80 93 a2 02 	sts	0x02A2, r24
    2138:	cf 91       	pop	r28
    213a:	08 95       	ret

0000213c <LCD_DisplayNumber.part.2>:
    213c:	af 92       	push	r10
    213e:	bf 92       	push	r11
    2140:	cf 92       	push	r12
    2142:	df 92       	push	r13
    2144:	ef 92       	push	r14
    2146:	ff 92       	push	r15
    2148:	0f 93       	push	r16
    214a:	1f 93       	push	r17
    214c:	cf 93       	push	r28
    214e:	df 93       	push	r29
    2150:	1f 92       	push	r1
    2152:	cd b7       	in	r28, 0x3d	; 61
    2154:	de b7       	in	r29, 0x3e	; 62
    2156:	6b 01       	movw	r12, r22
    2158:	7c 01       	movw	r14, r24
    215a:	aa 24       	eor	r10, r10
    215c:	a3 94       	inc	r10
    215e:	b1 2c       	mov	r11, r1
    2160:	44 23       	and	r20, r20
    2162:	f1 f0       	breq	.+60     	; 0x21a0 <LCD_DisplayNumber.part.2+0x64>
    2164:	0f ef       	ldi	r16, 0xFF	; 255
    2166:	04 0f       	add	r16, r20
    2168:	c5 01       	movw	r24, r10
    216a:	02 c0       	rjmp	.+4      	; 0x2170 <LCD_DisplayNumber.part.2+0x34>
    216c:	88 0f       	add	r24, r24
    216e:	99 1f       	adc	r25, r25
    2170:	0a 95       	dec	r16
    2172:	e2 f7       	brpl	.-8      	; 0x216c <LCD_DisplayNumber.part.2+0x30>
    2174:	8c 01       	movw	r16, r24
    2176:	22 27       	eor	r18, r18
    2178:	17 fd       	sbrc	r17, 7
    217a:	20 95       	com	r18
    217c:	32 2f       	mov	r19, r18
    217e:	0c 21       	and	r16, r12
    2180:	1d 21       	and	r17, r13
    2182:	2e 21       	and	r18, r14
    2184:	3f 21       	and	r19, r15
    2186:	81 e0       	ldi	r24, 0x01	; 1
    2188:	01 2b       	or	r16, r17
    218a:	02 2b       	or	r16, r18
    218c:	03 2b       	or	r16, r19
    218e:	09 f4       	brne	.+2      	; 0x2192 <LCD_DisplayNumber.part.2+0x56>
    2190:	80 e0       	ldi	r24, 0x00	; 0
    2192:	80 5d       	subi	r24, 0xD0	; 208
    2194:	49 83       	std	Y+1, r20	; 0x01
    2196:	0e 94 72 10 	call	0x20e4	; 0x20e4 <LCD_DisplayChar>
    219a:	49 81       	ldd	r20, Y+1	; 0x01
    219c:	41 50       	subi	r20, 0x01	; 1
    219e:	e0 cf       	rjmp	.-64     	; 0x2160 <LCD_DisplayNumber.part.2+0x24>
    21a0:	0f 90       	pop	r0
    21a2:	df 91       	pop	r29
    21a4:	cf 91       	pop	r28
    21a6:	1f 91       	pop	r17
    21a8:	0f 91       	pop	r16
    21aa:	ff 90       	pop	r15
    21ac:	ef 90       	pop	r14
    21ae:	df 90       	pop	r13
    21b0:	cf 90       	pop	r12
    21b2:	bf 90       	pop	r11
    21b4:	af 90       	pop	r10
    21b6:	08 95       	ret

000021b8 <LCD_DisplayString>:
    21b8:	cf 93       	push	r28
    21ba:	df 93       	push	r29
    21bc:	ec 01       	movw	r28, r24
    21be:	89 91       	ld	r24, Y+
    21c0:	88 23       	and	r24, r24
    21c2:	19 f0       	breq	.+6      	; 0x21ca <LCD_DisplayString+0x12>
    21c4:	0e 94 72 10 	call	0x20e4	; 0x20e4 <LCD_DisplayChar>
    21c8:	fa cf       	rjmp	.-12     	; 0x21be <LCD_DisplayString+0x6>
    21ca:	df 91       	pop	r29
    21cc:	cf 91       	pop	r28
    21ce:	08 95       	ret

000021d0 <LCD_ScrollMessage>:
    21d0:	df 92       	push	r13
    21d2:	ef 92       	push	r14
    21d4:	ff 92       	push	r15
    21d6:	0f 93       	push	r16
    21d8:	1f 93       	push	r17
    21da:	cf 93       	push	r28
    21dc:	df 93       	push	r29
    21de:	d8 2e       	mov	r13, r24
    21e0:	8b 01       	movw	r16, r22
    21e2:	80 91 94 02 	lds	r24, 0x0294
    21e6:	d8 16       	cp	r13, r24
    21e8:	08 f0       	brcs	.+2      	; 0x21ec <LCD_ScrollMessage+0x1c>
    21ea:	d1 2c       	mov	r13, r1
    21ec:	8c e0       	ldi	r24, 0x0C	; 12
    21ee:	0e 94 d3 0f 	call	0x1fa6	; 0x1fa6 <LCD_CmdWrite>
    21f2:	e1 2c       	mov	r14, r1
    21f4:	e8 01       	movw	r28, r16
    21f6:	ce 0d       	add	r28, r14
    21f8:	d1 1d       	adc	r29, r1
    21fa:	88 81       	ld	r24, Y
    21fc:	88 23       	and	r24, r24
    21fe:	09 f1       	breq	.+66     	; 0x2242 <LCD_ScrollMessage+0x72>
    2200:	8d 2d       	mov	r24, r13
    2202:	0e 94 ec 0f 	call	0x1fd8	; 0x1fd8 <LCD_GoToLine>
    2206:	f1 2c       	mov	r15, r1
    2208:	80 91 95 02 	lds	r24, 0x0295
    220c:	f8 16       	cp	r15, r24
    220e:	50 f4       	brcc	.+20     	; 0x2224 <LCD_ScrollMessage+0x54>
    2210:	fe 01       	movw	r30, r28
    2212:	ef 0d       	add	r30, r15
    2214:	f1 1d       	adc	r31, r1
    2216:	80 81       	ld	r24, Z
    2218:	88 23       	and	r24, r24
    221a:	21 f0       	breq	.+8      	; 0x2224 <LCD_ScrollMessage+0x54>
    221c:	0e 94 72 10 	call	0x20e4	; 0x20e4 <LCD_DisplayChar>
    2220:	f3 94       	inc	r15
    2222:	f2 cf       	rjmp	.-28     	; 0x2208 <LCD_ScrollMessage+0x38>
    2224:	80 91 95 02 	lds	r24, 0x0295
    2228:	f8 16       	cp	r15, r24
    222a:	28 f4       	brcc	.+10     	; 0x2236 <LCD_ScrollMessage+0x66>
    222c:	80 e2       	ldi	r24, 0x20	; 32
    222e:	0e 94 72 10 	call	0x20e4	; 0x20e4 <LCD_DisplayChar>
    2232:	f3 94       	inc	r15
    2234:	f7 cf       	rjmp	.-18     	; 0x2224 <LCD_ScrollMessage+0x54>
    2236:	88 ec       	ldi	r24, 0xC8	; 200
    2238:	90 e0       	ldi	r25, 0x00	; 0
    223a:	0e 94 97 0d 	call	0x1b2e	; 0x1b2e <DELAY_ms>
    223e:	e3 94       	inc	r14
    2240:	d9 cf       	rjmp	.-78     	; 0x21f4 <LCD_ScrollMessage+0x24>
    2242:	8e e0       	ldi	r24, 0x0E	; 14
    2244:	df 91       	pop	r29
    2246:	cf 91       	pop	r28
    2248:	1f 91       	pop	r17
    224a:	0f 91       	pop	r16
    224c:	ff 90       	pop	r15
    224e:	ef 90       	pop	r14
    2250:	df 90       	pop	r13
    2252:	0c 94 d3 0f 	jmp	0x1fa6	; 0x1fa6 <LCD_CmdWrite>

00002256 <LCD_DisplayNumber>:
    2256:	7f 92       	push	r7
    2258:	8f 92       	push	r8
    225a:	9f 92       	push	r9
    225c:	af 92       	push	r10
    225e:	bf 92       	push	r11
    2260:	cf 92       	push	r12
    2262:	df 92       	push	r13
    2264:	ef 92       	push	r14
    2266:	ff 92       	push	r15
    2268:	0f 93       	push	r16
    226a:	1f 93       	push	r17
    226c:	cf 93       	push	r28
    226e:	df 93       	push	r29
    2270:	cd b7       	in	r28, 0x3d	; 61
    2272:	de b7       	in	r29, 0x3e	; 62
    2274:	2a 97       	sbiw	r28, 0x0a	; 10
    2276:	0f b6       	in	r0, 0x3f	; 63
    2278:	f8 94       	cli
    227a:	de bf       	out	0x3e, r29	; 62
    227c:	0f be       	out	0x3f, r0	; 63
    227e:	cd bf       	out	0x3d, r28	; 61
    2280:	78 2e       	mov	r7, r24
    2282:	cb 01       	movw	r24, r22
    2284:	ba 01       	movw	r22, r20
    2286:	c2 2e       	mov	r12, r18
    2288:	22 e0       	ldi	r18, 0x02	; 2
    228a:	72 12       	cpse	r7, r18
    228c:	16 c0       	rjmp	.+44     	; 0x22ba <LCD_DisplayNumber+0x64>
    228e:	4c 2d       	mov	r20, r12
    2290:	2a 96       	adiw	r28, 0x0a	; 10
    2292:	0f b6       	in	r0, 0x3f	; 63
    2294:	f8 94       	cli
    2296:	de bf       	out	0x3e, r29	; 62
    2298:	0f be       	out	0x3f, r0	; 63
    229a:	cd bf       	out	0x3d, r28	; 61
    229c:	df 91       	pop	r29
    229e:	cf 91       	pop	r28
    22a0:	1f 91       	pop	r17
    22a2:	0f 91       	pop	r16
    22a4:	ff 90       	pop	r15
    22a6:	ef 90       	pop	r14
    22a8:	df 90       	pop	r13
    22aa:	cf 90       	pop	r12
    22ac:	bf 90       	pop	r11
    22ae:	af 90       	pop	r10
    22b0:	9f 90       	pop	r9
    22b2:	8f 90       	pop	r8
    22b4:	7f 90       	pop	r7
    22b6:	0c 94 9e 10 	jmp	0x213c	; 0x213c <LCD_DisplayNumber.part.2>
    22ba:	61 15       	cp	r22, r1
    22bc:	71 05       	cpc	r23, r1
    22be:	81 05       	cpc	r24, r1
    22c0:	91 05       	cpc	r25, r1
    22c2:	49 f0       	breq	.+18     	; 0x22d6 <LCD_DisplayNumber+0x80>
    22c4:	fe 01       	movw	r30, r28
    22c6:	31 96       	adiw	r30, 0x01	; 1
    22c8:	7f 01       	movw	r14, r30
    22ca:	8f 01       	movw	r16, r30
    22cc:	87 2c       	mov	r8, r7
    22ce:	91 2c       	mov	r9, r1
    22d0:	a1 2c       	mov	r10, r1
    22d2:	b1 2c       	mov	r11, r1
    22d4:	29 c0       	rjmp	.+82     	; 0x2328 <LCD_DisplayNumber+0xd2>
    22d6:	80 e3       	ldi	r24, 0x30	; 48
    22d8:	2a 96       	adiw	r28, 0x0a	; 10
    22da:	0f b6       	in	r0, 0x3f	; 63
    22dc:	f8 94       	cli
    22de:	de bf       	out	0x3e, r29	; 62
    22e0:	0f be       	out	0x3f, r0	; 63
    22e2:	cd bf       	out	0x3d, r28	; 61
    22e4:	df 91       	pop	r29
    22e6:	cf 91       	pop	r28
    22e8:	1f 91       	pop	r17
    22ea:	0f 91       	pop	r16
    22ec:	ff 90       	pop	r15
    22ee:	ef 90       	pop	r14
    22f0:	df 90       	pop	r13
    22f2:	cf 90       	pop	r12
    22f4:	bf 90       	pop	r11
    22f6:	af 90       	pop	r10
    22f8:	9f 90       	pop	r9
    22fa:	8f 90       	pop	r8
    22fc:	7f 90       	pop	r7
    22fe:	0c 94 72 10 	jmp	0x20e4	; 0x20e4 <LCD_DisplayChar>
    2302:	61 15       	cp	r22, r1
    2304:	71 05       	cpc	r23, r1
    2306:	81 05       	cpc	r24, r1
    2308:	91 05       	cpc	r25, r1
    230a:	99 f0       	breq	.+38     	; 0x2332 <LCD_DisplayNumber+0xdc>
    230c:	d6 2e       	mov	r13, r22
    230e:	a5 01       	movw	r20, r10
    2310:	94 01       	movw	r18, r8
    2312:	0e 94 b2 19 	call	0x3364	; 0x3364 <__udivmodsi4>
    2316:	ca 01       	movw	r24, r20
    2318:	b9 01       	movw	r22, r18
    231a:	72 9e       	mul	r7, r18
    231c:	d0 18       	sub	r13, r0
    231e:	11 24       	eor	r1, r1
    2320:	f8 01       	movw	r30, r16
    2322:	d0 82       	st	Z, r13
    2324:	0f 5f       	subi	r16, 0xFF	; 255
    2326:	1f 4f       	sbci	r17, 0xFF	; 255
    2328:	d0 2e       	mov	r13, r16
    232a:	de 18       	sub	r13, r14
    232c:	dc 14       	cp	r13, r12
    232e:	48 f3       	brcs	.-46     	; 0x2302 <LCD_DisplayNumber+0xac>
    2330:	10 c0       	rjmp	.+32     	; 0x2352 <LCD_DisplayNumber+0xfc>
    2332:	fa e0       	ldi	r31, 0x0A	; 10
    2334:	fc 15       	cp	r31, r12
    2336:	68 f0       	brcs	.+26     	; 0x2352 <LCD_DisplayNumber+0xfc>
    2338:	f8 01       	movw	r30, r16
    233a:	10 82       	st	Z, r1
    233c:	f3 cf       	rjmp	.-26     	; 0x2324 <LCD_DisplayNumber+0xce>
    233e:	fe 01       	movw	r30, r28
    2340:	ed 0d       	add	r30, r13
    2342:	f1 1d       	adc	r31, r1
    2344:	80 81       	ld	r24, Z
    2346:	8a 30       	cpi	r24, 0x0A	; 10
    2348:	38 f0       	brcs	.+14     	; 0x2358 <LCD_DisplayNumber+0x102>
    234a:	89 5c       	subi	r24, 0xC9	; 201
    234c:	0e 94 72 10 	call	0x20e4	; 0x20e4 <LCD_DisplayChar>
    2350:	da 94       	dec	r13
    2352:	d1 10       	cpse	r13, r1
    2354:	f4 cf       	rjmp	.-24     	; 0x233e <LCD_DisplayNumber+0xe8>
    2356:	02 c0       	rjmp	.+4      	; 0x235c <LCD_DisplayNumber+0x106>
    2358:	80 5d       	subi	r24, 0xD0	; 208
    235a:	f8 cf       	rjmp	.-16     	; 0x234c <LCD_DisplayNumber+0xf6>
    235c:	2a 96       	adiw	r28, 0x0a	; 10
    235e:	0f b6       	in	r0, 0x3f	; 63
    2360:	f8 94       	cli
    2362:	de bf       	out	0x3e, r29	; 62
    2364:	0f be       	out	0x3f, r0	; 63
    2366:	cd bf       	out	0x3d, r28	; 61
    2368:	df 91       	pop	r29
    236a:	cf 91       	pop	r28
    236c:	1f 91       	pop	r17
    236e:	0f 91       	pop	r16
    2370:	ff 90       	pop	r15
    2372:	ef 90       	pop	r14
    2374:	df 90       	pop	r13
    2376:	cf 90       	pop	r12
    2378:	bf 90       	pop	r11
    237a:	af 90       	pop	r10
    237c:	9f 90       	pop	r9
    237e:	8f 90       	pop	r8
    2380:	7f 90       	pop	r7
    2382:	08 95       	ret

00002384 <LCD_DisplayNumberWithAddingToBuffor>:
    2384:	2f 92       	push	r2
    2386:	3f 92       	push	r3
    2388:	5f 92       	push	r5
    238a:	6f 92       	push	r6
    238c:	7f 92       	push	r7
    238e:	8f 92       	push	r8
    2390:	9f 92       	push	r9
    2392:	af 92       	push	r10
    2394:	bf 92       	push	r11
    2396:	cf 92       	push	r12
    2398:	df 92       	push	r13
    239a:	ef 92       	push	r14
    239c:	ff 92       	push	r15
    239e:	0f 93       	push	r16
    23a0:	1f 93       	push	r17
    23a2:	cf 93       	push	r28
    23a4:	df 93       	push	r29
    23a6:	cd b7       	in	r28, 0x3d	; 61
    23a8:	de b7       	in	r29, 0x3e	; 62
    23aa:	2e 97       	sbiw	r28, 0x0e	; 14
    23ac:	0f b6       	in	r0, 0x3f	; 63
    23ae:	f8 94       	cli
    23b0:	de bf       	out	0x3e, r29	; 62
    23b2:	0f be       	out	0x3f, r0	; 63
    23b4:	cd bf       	out	0x3d, r28	; 61
    23b6:	68 2e       	mov	r6, r24
    23b8:	72 2e       	mov	r7, r18
    23ba:	47 01       	movw	r8, r14
    23bc:	22 e0       	ldi	r18, 0x02	; 2
    23be:	82 13       	cpse	r24, r18
    23c0:	41 c0       	rjmp	.+130    	; 0x2444 <LCD_DisplayNumberWithAddingToBuffor+0xc0>
    23c2:	ee 24       	eor	r14, r14
    23c4:	e3 94       	inc	r14
    23c6:	f1 2c       	mov	r15, r1
    23c8:	a4 e0       	ldi	r26, 0x04	; 4
    23ca:	88 0c       	add	r8, r8
    23cc:	99 1c       	adc	r9, r9
    23ce:	aa 95       	dec	r26
    23d0:	e1 f7       	brne	.-8      	; 0x23ca <LCD_DisplayNumberWithAddingToBuffor+0x46>
    23d2:	77 20       	and	r7, r7
    23d4:	09 f4       	brne	.+2      	; 0x23d8 <LCD_DisplayNumberWithAddingToBuffor+0x54>
    23d6:	a9 c0       	rjmp	.+338    	; 0x252a <LCD_DisplayNumberWithAddingToBuffor+0x1a6>
    23d8:	8f ef       	ldi	r24, 0xFF	; 255
    23da:	87 0d       	add	r24, r7
    23dc:	d7 01       	movw	r26, r14
    23de:	02 c0       	rjmp	.+4      	; 0x23e4 <LCD_DisplayNumberWithAddingToBuffor+0x60>
    23e0:	aa 0f       	add	r26, r26
    23e2:	bb 1f       	adc	r27, r27
    23e4:	8a 95       	dec	r24
    23e6:	e2 f7       	brpl	.-8      	; 0x23e0 <LCD_DisplayNumberWithAddingToBuffor+0x5c>
    23e8:	cd 01       	movw	r24, r26
    23ea:	aa 27       	eor	r26, r26
    23ec:	97 fd       	sbrc	r25, 7
    23ee:	a0 95       	com	r26
    23f0:	ba 2f       	mov	r27, r26
    23f2:	84 23       	and	r24, r20
    23f4:	95 23       	and	r25, r21
    23f6:	a6 23       	and	r26, r22
    23f8:	b7 23       	and	r27, r23
    23fa:	21 e0       	ldi	r18, 0x01	; 1
    23fc:	89 2b       	or	r24, r25
    23fe:	8a 2b       	or	r24, r26
    2400:	8b 2b       	or	r24, r27
    2402:	09 f4       	brne	.+2      	; 0x2406 <LCD_DisplayNumberWithAddingToBuffor+0x82>
    2404:	20 e0       	ldi	r18, 0x00	; 0
    2406:	e0 e3       	ldi	r30, 0x30	; 48
    2408:	de 2e       	mov	r13, r30
    240a:	d2 0e       	add	r13, r18
    240c:	8d 2d       	mov	r24, r13
    240e:	4b 87       	std	Y+11, r20	; 0x0b
    2410:	5c 87       	std	Y+12, r21	; 0x0c
    2412:	6d 87       	std	Y+13, r22	; 0x0d
    2414:	7e 87       	std	Y+14, r23	; 0x0e
    2416:	0e 94 72 10 	call	0x20e4	; 0x20e4 <LCD_DisplayChar>
    241a:	d8 01       	movw	r26, r16
    241c:	ed 91       	ld	r30, X+
    241e:	fc 91       	ld	r31, X
    2420:	11 97       	sbiw	r26, 0x01	; 1
    2422:	e8 0d       	add	r30, r8
    2424:	f9 1d       	adc	r31, r9
    2426:	ec 58       	subi	r30, 0x8C	; 140
    2428:	fd 4f       	sbci	r31, 0xFD	; 253
    242a:	d0 82       	st	Z, r13
    242c:	8d 91       	ld	r24, X+
    242e:	9c 91       	ld	r25, X
    2430:	11 97       	sbiw	r26, 0x01	; 1
    2432:	01 96       	adiw	r24, 0x01	; 1
    2434:	8d 93       	st	X+, r24
    2436:	9c 93       	st	X, r25
    2438:	7a 94       	dec	r7
    243a:	7e 85       	ldd	r23, Y+14	; 0x0e
    243c:	6d 85       	ldd	r22, Y+13	; 0x0d
    243e:	5c 85       	ldd	r21, Y+12	; 0x0c
    2440:	4b 85       	ldd	r20, Y+11	; 0x0b
    2442:	c7 cf       	rjmp	.-114    	; 0x23d2 <LCD_DisplayNumberWithAddingToBuffor+0x4e>
    2444:	41 15       	cp	r20, r1
    2446:	51 05       	cpc	r21, r1
    2448:	61 05       	cpc	r22, r1
    244a:	71 05       	cpc	r23, r1
    244c:	09 f4       	brne	.+2      	; 0x2450 <LCD_DisplayNumberWithAddingToBuffor+0xcc>
    244e:	54 c0       	rjmp	.+168    	; 0x24f8 <LCD_DisplayNumberWithAddingToBuffor+0x174>
    2450:	fe 01       	movw	r30, r28
    2452:	31 96       	adiw	r30, 0x01	; 1
    2454:	1f 01       	movw	r2, r30
    2456:	5f 01       	movw	r10, r30
    2458:	c8 2e       	mov	r12, r24
    245a:	d1 2c       	mov	r13, r1
    245c:	e1 2c       	mov	r14, r1
    245e:	f1 2c       	mov	r15, r1
    2460:	5a 2c       	mov	r5, r10
    2462:	52 18       	sub	r5, r2
    2464:	57 14       	cp	r5, r7
    2466:	b8 f4       	brcc	.+46     	; 0x2496 <LCD_DisplayNumberWithAddingToBuffor+0x112>
    2468:	41 15       	cp	r20, r1
    246a:	51 05       	cpc	r21, r1
    246c:	61 05       	cpc	r22, r1
    246e:	71 05       	cpc	r23, r1
    2470:	79 f0       	breq	.+30     	; 0x2490 <LCD_DisplayNumberWithAddingToBuffor+0x10c>
    2472:	54 2e       	mov	r5, r20
    2474:	cb 01       	movw	r24, r22
    2476:	ba 01       	movw	r22, r20
    2478:	a7 01       	movw	r20, r14
    247a:	96 01       	movw	r18, r12
    247c:	0e 94 b2 19 	call	0x3364	; 0x3364 <__udivmodsi4>
    2480:	ba 01       	movw	r22, r20
    2482:	a9 01       	movw	r20, r18
    2484:	64 9e       	mul	r6, r20
    2486:	50 18       	sub	r5, r0
    2488:	11 24       	eor	r1, r1
    248a:	d5 01       	movw	r26, r10
    248c:	5c 92       	st	X, r5
    248e:	0b c0       	rjmp	.+22     	; 0x24a6 <LCD_DisplayNumberWithAddingToBuffor+0x122>
    2490:	ba e0       	ldi	r27, 0x0A	; 10
    2492:	b7 15       	cp	r27, r7
    2494:	30 f4       	brcc	.+12     	; 0x24a2 <LCD_DisplayNumberWithAddingToBuffor+0x11e>
    2496:	34 e0       	ldi	r19, 0x04	; 4
    2498:	88 0c       	add	r8, r8
    249a:	99 1c       	adc	r9, r9
    249c:	3a 95       	dec	r19
    249e:	e1 f7       	brne	.-8      	; 0x2498 <LCD_DisplayNumberWithAddingToBuffor+0x114>
    24a0:	24 c0       	rjmp	.+72     	; 0x24ea <LCD_DisplayNumberWithAddingToBuffor+0x166>
    24a2:	f5 01       	movw	r30, r10
    24a4:	10 82       	st	Z, r1
    24a6:	ff ef       	ldi	r31, 0xFF	; 255
    24a8:	af 1a       	sub	r10, r31
    24aa:	bf 0a       	sbc	r11, r31
    24ac:	d9 cf       	rjmp	.-78     	; 0x2460 <LCD_DisplayNumberWithAddingToBuffor+0xdc>
    24ae:	fe 01       	movw	r30, r28
    24b0:	e5 0d       	add	r30, r5
    24b2:	f1 1d       	adc	r31, r1
    24b4:	90 81       	ld	r25, Z
    24b6:	9a 30       	cpi	r25, 0x0A	; 10
    24b8:	d8 f0       	brcs	.+54     	; 0x24f0 <LCD_DisplayNumberWithAddingToBuffor+0x16c>
    24ba:	87 e3       	ldi	r24, 0x37	; 55
    24bc:	89 0f       	add	r24, r25
    24be:	9b 87       	std	Y+11, r25	; 0x0b
    24c0:	0e 94 72 10 	call	0x20e4	; 0x20e4 <LCD_DisplayChar>
    24c4:	d8 01       	movw	r26, r16
    24c6:	ed 91       	ld	r30, X+
    24c8:	fc 91       	ld	r31, X
    24ca:	9b 85       	ldd	r25, Y+11	; 0x0b
    24cc:	9a 30       	cpi	r25, 0x0A	; 10
    24ce:	90 f0       	brcs	.+36     	; 0x24f4 <LCD_DisplayNumberWithAddingToBuffor+0x170>
    24d0:	99 5c       	subi	r25, 0xC9	; 201
    24d2:	e8 0d       	add	r30, r8
    24d4:	f9 1d       	adc	r31, r9
    24d6:	ec 58       	subi	r30, 0x8C	; 140
    24d8:	fd 4f       	sbci	r31, 0xFD	; 253
    24da:	90 83       	st	Z, r25
    24dc:	f8 01       	movw	r30, r16
    24de:	80 81       	ld	r24, Z
    24e0:	91 81       	ldd	r25, Z+1	; 0x01
    24e2:	01 96       	adiw	r24, 0x01	; 1
    24e4:	91 83       	std	Z+1, r25	; 0x01
    24e6:	80 83       	st	Z, r24
    24e8:	5a 94       	dec	r5
    24ea:	51 10       	cpse	r5, r1
    24ec:	e0 cf       	rjmp	.-64     	; 0x24ae <LCD_DisplayNumberWithAddingToBuffor+0x12a>
    24ee:	1d c0       	rjmp	.+58     	; 0x252a <LCD_DisplayNumberWithAddingToBuffor+0x1a6>
    24f0:	80 e3       	ldi	r24, 0x30	; 48
    24f2:	e4 cf       	rjmp	.-56     	; 0x24bc <LCD_DisplayNumberWithAddingToBuffor+0x138>
    24f4:	90 5d       	subi	r25, 0xD0	; 208
    24f6:	ed cf       	rjmp	.-38     	; 0x24d2 <LCD_DisplayNumberWithAddingToBuffor+0x14e>
    24f8:	80 e3       	ldi	r24, 0x30	; 48
    24fa:	0e 94 72 10 	call	0x20e4	; 0x20e4 <LCD_DisplayChar>
    24fe:	d8 01       	movw	r26, r16
    2500:	8d 91       	ld	r24, X+
    2502:	9c 91       	ld	r25, X
    2504:	11 97       	sbiw	r26, 0x01	; 1
    2506:	f7 01       	movw	r30, r14
    2508:	24 e0       	ldi	r18, 0x04	; 4
    250a:	ee 0f       	add	r30, r30
    250c:	ff 1f       	adc	r31, r31
    250e:	2a 95       	dec	r18
    2510:	e1 f7       	brne	.-8      	; 0x250a <LCD_DisplayNumberWithAddingToBuffor+0x186>
    2512:	e8 0f       	add	r30, r24
    2514:	f9 1f       	adc	r31, r25
    2516:	ec 58       	subi	r30, 0x8C	; 140
    2518:	fd 4f       	sbci	r31, 0xFD	; 253
    251a:	80 e3       	ldi	r24, 0x30	; 48
    251c:	80 83       	st	Z, r24
    251e:	8d 91       	ld	r24, X+
    2520:	9c 91       	ld	r25, X
    2522:	11 97       	sbiw	r26, 0x01	; 1
    2524:	01 96       	adiw	r24, 0x01	; 1
    2526:	8d 93       	st	X+, r24
    2528:	9c 93       	st	X, r25
    252a:	2e 96       	adiw	r28, 0x0e	; 14
    252c:	0f b6       	in	r0, 0x3f	; 63
    252e:	f8 94       	cli
    2530:	de bf       	out	0x3e, r29	; 62
    2532:	0f be       	out	0x3f, r0	; 63
    2534:	cd bf       	out	0x3d, r28	; 61
    2536:	df 91       	pop	r29
    2538:	cf 91       	pop	r28
    253a:	1f 91       	pop	r17
    253c:	0f 91       	pop	r16
    253e:	ff 90       	pop	r15
    2540:	ef 90       	pop	r14
    2542:	df 90       	pop	r13
    2544:	cf 90       	pop	r12
    2546:	bf 90       	pop	r11
    2548:	af 90       	pop	r10
    254a:	9f 90       	pop	r9
    254c:	8f 90       	pop	r8
    254e:	7f 90       	pop	r7
    2550:	6f 90       	pop	r6
    2552:	5f 90       	pop	r5
    2554:	3f 90       	pop	r3
    2556:	2f 90       	pop	r2
    2558:	08 95       	ret

0000255a <LCD_DataWrite>:
    255a:	cf 93       	push	r28
    255c:	c8 2f       	mov	r28, r24
    255e:	0e 94 13 0f 	call	0x1e26	; 0x1e26 <lcd_BusyCheck>
    2562:	80 91 96 02 	lds	r24, 0x0296
    2566:	88 30       	cpi	r24, 0x08	; 8
    2568:	21 f4       	brne	.+8      	; 0x2572 <LCD_DataWrite+0x18>
    256a:	8c 2f       	mov	r24, r28
    256c:	0e 94 d9 0e 	call	0x1db2	; 0x1db2 <lcd_SendLowerNibble>
    2570:	07 c0       	rjmp	.+14     	; 0x2580 <LCD_DataWrite+0x26>
    2572:	8c 2f       	mov	r24, r28
    2574:	0e 94 9d 0e 	call	0x1d3a	; 0x1d3a <lcd_SendHigherNibble>
    2578:	0e 94 f7 0e 	call	0x1dee	; 0x1dee <lcd_SendDataSignals>
    257c:	c2 95       	swap	r28
    257e:	c0 7f       	andi	r28, 0xF0	; 240
    2580:	8c 2f       	mov	r24, r28
    2582:	0e 94 9d 0e 	call	0x1d3a	; 0x1d3a <lcd_SendHigherNibble>
    2586:	cf 91       	pop	r28
    2588:	0c 94 f7 0e 	jmp	0x1dee	; 0x1dee <lcd_SendDataSignals>

0000258c <LCD_InitializeSymbols>:
    258c:	af 92       	push	r10
    258e:	bf 92       	push	r11
    2590:	cf 92       	push	r12
    2592:	df 92       	push	r13
    2594:	ef 92       	push	r14
    2596:	ff 92       	push	r15
    2598:	0f 93       	push	r16
    259a:	1f 93       	push	r17
    259c:	cf 93       	push	r28
    259e:	df 93       	push	r29
    25a0:	cd b7       	in	r28, 0x3d	; 61
    25a2:	de b7       	in	r29, 0x3e	; 62
    25a4:	c8 54       	subi	r28, 0x48	; 72
    25a6:	d1 09       	sbc	r29, r1
    25a8:	0f b6       	in	r0, 0x3f	; 63
    25aa:	f8 94       	cli
    25ac:	de bf       	out	0x3e, r29	; 62
    25ae:	0f be       	out	0x3f, r0	; 63
    25b0:	cd bf       	out	0x3d, r28	; 61
    25b2:	88 e0       	ldi	r24, 0x08	; 8
    25b4:	e4 e6       	ldi	r30, 0x64	; 100
    25b6:	f0 e0       	ldi	r31, 0x00	; 0
    25b8:	de 01       	movw	r26, r28
    25ba:	af 5b       	subi	r26, 0xBF	; 191
    25bc:	bf 4f       	sbci	r27, 0xFF	; 255
    25be:	01 90       	ld	r0, Z+
    25c0:	0d 92       	st	X+, r0
    25c2:	8a 95       	dec	r24
    25c4:	e1 f7       	brne	.-8      	; 0x25be <LCD_InitializeSymbols+0x32>
    25c6:	80 e4       	ldi	r24, 0x40	; 64
    25c8:	ec e6       	ldi	r30, 0x6C	; 108
    25ca:	f0 e0       	ldi	r31, 0x00	; 0
    25cc:	de 01       	movw	r26, r28
    25ce:	11 96       	adiw	r26, 0x01	; 1
    25d0:	01 90       	ld	r0, Z+
    25d2:	0d 92       	st	X+, r0
    25d4:	8a 95       	dec	r24
    25d6:	e1 f7       	brne	.-8      	; 0x25d0 <LCD_InitializeSymbols+0x44>
    25d8:	8e 01       	movw	r16, r28
    25da:	0f 5b       	subi	r16, 0xBF	; 191
    25dc:	1f 4f       	sbci	r17, 0xFF	; 255
    25de:	ce 01       	movw	r24, r28
    25e0:	01 96       	adiw	r24, 0x01	; 1
    25e2:	6c 01       	movw	r12, r24
    25e4:	58 01       	movw	r10, r16
    25e6:	98 e0       	ldi	r25, 0x08	; 8
    25e8:	a9 0e       	add	r10, r25
    25ea:	b1 1c       	adc	r11, r1
    25ec:	f8 01       	movw	r30, r16
    25ee:	81 91       	ld	r24, Z+
    25f0:	8f 01       	movw	r16, r30
    25f2:	0e 94 d3 0f 	call	0x1fa6	; 0x1fa6 <LCD_CmdWrite>
    25f6:	e1 2c       	mov	r14, r1
    25f8:	f1 2c       	mov	r15, r1
    25fa:	f6 01       	movw	r30, r12
    25fc:	ee 0d       	add	r30, r14
    25fe:	ff 1d       	adc	r31, r15
    2600:	80 81       	ld	r24, Z
    2602:	0e 94 ad 12 	call	0x255a	; 0x255a <LCD_DataWrite>
    2606:	ff ef       	ldi	r31, 0xFF	; 255
    2608:	ef 1a       	sub	r14, r31
    260a:	ff 0a       	sbc	r15, r31
    260c:	88 e0       	ldi	r24, 0x08	; 8
    260e:	e8 16       	cp	r14, r24
    2610:	f1 04       	cpc	r15, r1
    2612:	99 f7       	brne	.-26     	; 0x25fa <LCD_InitializeSymbols+0x6e>
    2614:	98 e0       	ldi	r25, 0x08	; 8
    2616:	c9 0e       	add	r12, r25
    2618:	d1 1c       	adc	r13, r1
    261a:	0a 15       	cp	r16, r10
    261c:	1b 05       	cpc	r17, r11
    261e:	31 f7       	brne	.-52     	; 0x25ec <LCD_InitializeSymbols+0x60>
    2620:	c8 5b       	subi	r28, 0xB8	; 184
    2622:	df 4f       	sbci	r29, 0xFF	; 255
    2624:	0f b6       	in	r0, 0x3f	; 63
    2626:	f8 94       	cli
    2628:	de bf       	out	0x3e, r29	; 62
    262a:	0f be       	out	0x3f, r0	; 63
    262c:	cd bf       	out	0x3d, r28	; 61
    262e:	df 91       	pop	r29
    2630:	cf 91       	pop	r28
    2632:	1f 91       	pop	r17
    2634:	0f 91       	pop	r16
    2636:	ff 90       	pop	r15
    2638:	ef 90       	pop	r14
    263a:	df 90       	pop	r13
    263c:	cf 90       	pop	r12
    263e:	bf 90       	pop	r11
    2640:	af 90       	pop	r10
    2642:	08 95       	ret

00002644 <LCD_PrintSymbol>:
    2644:	81 30       	cpi	r24, 0x01	; 1
    2646:	91 05       	cpc	r25, r1
    2648:	11 f4       	brne	.+4      	; 0x264e <LCD_PrintSymbol+0xa>
    264a:	80 e0       	ldi	r24, 0x00	; 0
    264c:	21 c0       	rjmp	.+66     	; 0x2690 <LCD_PrintSymbol+0x4c>
    264e:	82 30       	cpi	r24, 0x02	; 2
    2650:	91 05       	cpc	r25, r1
    2652:	11 f4       	brne	.+4      	; 0x2658 <LCD_PrintSymbol+0x14>
    2654:	81 e0       	ldi	r24, 0x01	; 1
    2656:	1c c0       	rjmp	.+56     	; 0x2690 <LCD_PrintSymbol+0x4c>
    2658:	83 30       	cpi	r24, 0x03	; 3
    265a:	91 05       	cpc	r25, r1
    265c:	11 f4       	brne	.+4      	; 0x2662 <LCD_PrintSymbol+0x1e>
    265e:	82 e0       	ldi	r24, 0x02	; 2
    2660:	17 c0       	rjmp	.+46     	; 0x2690 <LCD_PrintSymbol+0x4c>
    2662:	84 30       	cpi	r24, 0x04	; 4
    2664:	91 05       	cpc	r25, r1
    2666:	11 f4       	brne	.+4      	; 0x266c <LCD_PrintSymbol+0x28>
    2668:	83 e0       	ldi	r24, 0x03	; 3
    266a:	12 c0       	rjmp	.+36     	; 0x2690 <LCD_PrintSymbol+0x4c>
    266c:	85 30       	cpi	r24, 0x05	; 5
    266e:	91 05       	cpc	r25, r1
    2670:	11 f4       	brne	.+4      	; 0x2676 <LCD_PrintSymbol+0x32>
    2672:	84 e0       	ldi	r24, 0x04	; 4
    2674:	0d c0       	rjmp	.+26     	; 0x2690 <LCD_PrintSymbol+0x4c>
    2676:	86 30       	cpi	r24, 0x06	; 6
    2678:	91 05       	cpc	r25, r1
    267a:	11 f4       	brne	.+4      	; 0x2680 <LCD_PrintSymbol+0x3c>
    267c:	85 e0       	ldi	r24, 0x05	; 5
    267e:	08 c0       	rjmp	.+16     	; 0x2690 <LCD_PrintSymbol+0x4c>
    2680:	87 30       	cpi	r24, 0x07	; 7
    2682:	91 05       	cpc	r25, r1
    2684:	11 f4       	brne	.+4      	; 0x268a <LCD_PrintSymbol+0x46>
    2686:	86 e0       	ldi	r24, 0x06	; 6
    2688:	03 c0       	rjmp	.+6      	; 0x2690 <LCD_PrintSymbol+0x4c>
    268a:	08 97       	sbiw	r24, 0x08	; 8
    268c:	19 f4       	brne	.+6      	; 0x2694 <LCD_PrintSymbol+0x50>
    268e:	87 e0       	ldi	r24, 0x07	; 7
    2690:	0c 94 ad 12 	jmp	0x255a	; 0x255a <LCD_DataWrite>
    2694:	08 95       	ret

00002696 <LCD_PrintBlock>:
    2696:	8f ef       	ldi	r24, 0xFF	; 255
    2698:	0c 94 ad 12 	jmp	0x255a	; 0x255a <LCD_DataWrite>

0000269c <LCD_PrintLArrow>:
    269c:	8f e7       	ldi	r24, 0x7F	; 127
    269e:	0c 94 ad 12 	jmp	0x255a	; 0x255a <LCD_DataWrite>

000026a2 <LCD_PrintRArrow>:
    26a2:	8e e7       	ldi	r24, 0x7E	; 126
    26a4:	0c 94 ad 12 	jmp	0x255a	; 0x255a <LCD_DataWrite>

000026a8 <LCD_PrintDot>:
    26a8:	85 ea       	ldi	r24, 0xA5	; 165
    26aa:	0c 94 ad 12 	jmp	0x255a	; 0x255a <LCD_DataWrite>

000026ae <LCD_DisplayStringWithAddingToBuffor>:
    26ae:	df 92       	push	r13
    26b0:	ef 92       	push	r14
    26b2:	ff 92       	push	r15
    26b4:	0f 93       	push	r16
    26b6:	1f 93       	push	r17
    26b8:	cf 93       	push	r28
    26ba:	df 93       	push	r29
    26bc:	fc 01       	movw	r30, r24
    26be:	eb 01       	movw	r28, r22
    26c0:	8a 01       	movw	r16, r20
    26c2:	b4 e0       	ldi	r27, 0x04	; 4
    26c4:	00 0f       	add	r16, r16
    26c6:	11 1f       	adc	r17, r17
    26c8:	ba 95       	dec	r27
    26ca:	e1 f7       	brne	.-8      	; 0x26c4 <LCD_DisplayStringWithAddingToBuffor+0x16>
    26cc:	d0 80       	ld	r13, Z
    26ce:	dd 20       	and	r13, r13
    26d0:	09 f4       	brne	.+2      	; 0x26d4 <LCD_DisplayStringWithAddingToBuffor+0x26>
    26d2:	6a c0       	rjmp	.+212    	; 0x27a8 <LCD_DisplayStringWithAddingToBuffor+0xfa>
    26d4:	85 e2       	ldi	r24, 0x25	; 37
    26d6:	7f 01       	movw	r14, r30
    26d8:	d8 12       	cpse	r13, r24
    26da:	52 c0       	rjmp	.+164    	; 0x2780 <LCD_DisplayStringWithAddingToBuffor+0xd2>
    26dc:	82 e0       	ldi	r24, 0x02	; 2
    26de:	e8 0e       	add	r14, r24
    26e0:	f1 1c       	adc	r15, r1
    26e2:	d1 80       	ldd	r13, Z+1	; 0x01
    26e4:	8e e3       	ldi	r24, 0x3E	; 62
    26e6:	d8 16       	cp	r13, r24
    26e8:	b1 f1       	breq	.+108    	; 0x2756 <LCD_DisplayStringWithAddingToBuffor+0xa8>
    26ea:	8d 15       	cp	r24, r13
    26ec:	c8 f0       	brcs	.+50     	; 0x2720 <LCD_DisplayStringWithAddingToBuffor+0x72>
    26ee:	8e e2       	ldi	r24, 0x2E	; 46
    26f0:	d8 16       	cp	r13, r24
    26f2:	09 f4       	brne	.+2      	; 0x26f6 <LCD_DisplayStringWithAddingToBuffor+0x48>
    26f4:	42 c0       	rjmp	.+132    	; 0x277a <LCD_DisplayStringWithAddingToBuffor+0xcc>
    26f6:	8d 15       	cp	r24, r13
    26f8:	40 f0       	brcs	.+16     	; 0x270a <LCD_DisplayStringWithAddingToBuffor+0x5c>
    26fa:	85 e2       	ldi	r24, 0x25	; 37
    26fc:	d8 16       	cp	r13, r24
    26fe:	49 f1       	breq	.+82     	; 0x2752 <LCD_DisplayStringWithAddingToBuffor+0xa4>
    2700:	8c e2       	ldi	r24, 0x2C	; 44
    2702:	d8 12       	cpse	r13, r24
    2704:	4f c0       	rjmp	.+158    	; 0x27a4 <LCD_DisplayStringWithAddingToBuffor+0xf6>
    2706:	85 e0       	ldi	r24, 0x05	; 5
    2708:	29 c0       	rjmp	.+82     	; 0x275c <LCD_DisplayStringWithAddingToBuffor+0xae>
    270a:	8b e3       	ldi	r24, 0x3B	; 59
    270c:	d8 16       	cp	r13, r24
    270e:	69 f1       	breq	.+90     	; 0x276a <LCD_DisplayStringWithAddingToBuffor+0xbc>
    2710:	8c e3       	ldi	r24, 0x3C	; 60
    2712:	d8 16       	cp	r13, r24
    2714:	11 f1       	breq	.+68     	; 0x275a <LCD_DisplayStringWithAddingToBuffor+0xac>
    2716:	8a e3       	ldi	r24, 0x3A	; 58
    2718:	d8 12       	cpse	r13, r24
    271a:	44 c0       	rjmp	.+136    	; 0x27a4 <LCD_DisplayStringWithAddingToBuffor+0xf6>
    271c:	86 e0       	ldi	r24, 0x06	; 6
    271e:	1e c0       	rjmp	.+60     	; 0x275c <LCD_DisplayStringWithAddingToBuffor+0xae>
    2720:	8d e5       	ldi	r24, 0x5D	; 93
    2722:	d8 16       	cp	r13, r24
    2724:	39 f1       	breq	.+78     	; 0x2774 <LCD_DisplayStringWithAddingToBuffor+0xc6>
    2726:	8d 15       	cp	r24, r13
    2728:	48 f0       	brcs	.+18     	; 0x273c <LCD_DisplayStringWithAddingToBuffor+0x8e>
    272a:	8f e3       	ldi	r24, 0x3F	; 63
    272c:	d8 16       	cp	r13, r24
    272e:	f9 f0       	breq	.+62     	; 0x276e <LCD_DisplayStringWithAddingToBuffor+0xc0>
    2730:	8b e5       	ldi	r24, 0x5B	; 91
    2732:	d8 12       	cpse	r13, r24
    2734:	37 c0       	rjmp	.+110    	; 0x27a4 <LCD_DisplayStringWithAddingToBuffor+0xf6>
    2736:	0e 94 4e 13 	call	0x269c	; 0x269c <LCD_PrintLArrow>
    273a:	28 c0       	rjmp	.+80     	; 0x278c <LCD_DisplayStringWithAddingToBuffor+0xde>
    273c:	8c e7       	ldi	r24, 0x7C	; 124
    273e:	d8 16       	cp	r13, r24
    2740:	81 f0       	breq	.+32     	; 0x2762 <LCD_DisplayStringWithAddingToBuffor+0xb4>
    2742:	8d e7       	ldi	r24, 0x7D	; 125
    2744:	d8 16       	cp	r13, r24
    2746:	79 f0       	breq	.+30     	; 0x2766 <LCD_DisplayStringWithAddingToBuffor+0xb8>
    2748:	8b e7       	ldi	r24, 0x7B	; 123
    274a:	d8 12       	cpse	r13, r24
    274c:	2b c0       	rjmp	.+86     	; 0x27a4 <LCD_DisplayStringWithAddingToBuffor+0xf6>
    274e:	83 e0       	ldi	r24, 0x03	; 3
    2750:	05 c0       	rjmp	.+10     	; 0x275c <LCD_DisplayStringWithAddingToBuffor+0xae>
    2752:	85 e2       	ldi	r24, 0x25	; 37
    2754:	19 c0       	rjmp	.+50     	; 0x2788 <LCD_DisplayStringWithAddingToBuffor+0xda>
    2756:	80 e0       	ldi	r24, 0x00	; 0
    2758:	01 c0       	rjmp	.+2      	; 0x275c <LCD_DisplayStringWithAddingToBuffor+0xae>
    275a:	81 e0       	ldi	r24, 0x01	; 1
    275c:	0e 94 ad 12 	call	0x255a	; 0x255a <LCD_DataWrite>
    2760:	15 c0       	rjmp	.+42     	; 0x278c <LCD_DisplayStringWithAddingToBuffor+0xde>
    2762:	82 e0       	ldi	r24, 0x02	; 2
    2764:	fb cf       	rjmp	.-10     	; 0x275c <LCD_DisplayStringWithAddingToBuffor+0xae>
    2766:	84 e0       	ldi	r24, 0x04	; 4
    2768:	f9 cf       	rjmp	.-14     	; 0x275c <LCD_DisplayStringWithAddingToBuffor+0xae>
    276a:	87 e0       	ldi	r24, 0x07	; 7
    276c:	f7 cf       	rjmp	.-18     	; 0x275c <LCD_DisplayStringWithAddingToBuffor+0xae>
    276e:	0e 94 4b 13 	call	0x2696	; 0x2696 <LCD_PrintBlock>
    2772:	0c c0       	rjmp	.+24     	; 0x278c <LCD_DisplayStringWithAddingToBuffor+0xde>
    2774:	0e 94 51 13 	call	0x26a2	; 0x26a2 <LCD_PrintRArrow>
    2778:	09 c0       	rjmp	.+18     	; 0x278c <LCD_DisplayStringWithAddingToBuffor+0xde>
    277a:	0e 94 54 13 	call	0x26a8	; 0x26a8 <LCD_PrintDot>
    277e:	06 c0       	rjmp	.+12     	; 0x278c <LCD_DisplayStringWithAddingToBuffor+0xde>
    2780:	8f ef       	ldi	r24, 0xFF	; 255
    2782:	e8 1a       	sub	r14, r24
    2784:	f8 0a       	sbc	r15, r24
    2786:	8d 2d       	mov	r24, r13
    2788:	0e 94 72 10 	call	0x20e4	; 0x20e4 <LCD_DisplayChar>
    278c:	e8 81       	ld	r30, Y
    278e:	f9 81       	ldd	r31, Y+1	; 0x01
    2790:	e0 0f       	add	r30, r16
    2792:	f1 1f       	adc	r31, r17
    2794:	ec 58       	subi	r30, 0x8C	; 140
    2796:	fd 4f       	sbci	r31, 0xFD	; 253
    2798:	d0 82       	st	Z, r13
    279a:	88 81       	ld	r24, Y
    279c:	99 81       	ldd	r25, Y+1	; 0x01
    279e:	01 96       	adiw	r24, 0x01	; 1
    27a0:	99 83       	std	Y+1, r25	; 0x01
    27a2:	88 83       	st	Y, r24
    27a4:	f7 01       	movw	r30, r14
    27a6:	92 cf       	rjmp	.-220    	; 0x26cc <LCD_DisplayStringWithAddingToBuffor+0x1e>
    27a8:	df 91       	pop	r29
    27aa:	cf 91       	pop	r28
    27ac:	1f 91       	pop	r17
    27ae:	0f 91       	pop	r16
    27b0:	ff 90       	pop	r15
    27b2:	ef 90       	pop	r14
    27b4:	df 90       	pop	r13
    27b6:	08 95       	ret

000027b8 <LCD_XYPrintf>:
    27b8:	6f 92       	push	r6
    27ba:	7f 92       	push	r7
    27bc:	8f 92       	push	r8
    27be:	9f 92       	push	r9
    27c0:	af 92       	push	r10
    27c2:	bf 92       	push	r11
    27c4:	cf 92       	push	r12
    27c6:	df 92       	push	r13
    27c8:	ef 92       	push	r14
    27ca:	ff 92       	push	r15
    27cc:	0f 93       	push	r16
    27ce:	1f 93       	push	r17
    27d0:	cf 93       	push	r28
    27d2:	df 93       	push	r29
    27d4:	cd b7       	in	r28, 0x3d	; 61
    27d6:	de b7       	in	r29, 0x3e	; 62
    27d8:	27 97       	sbiw	r28, 0x07	; 7
    27da:	0f b6       	in	r0, 0x3f	; 63
    27dc:	f8 94       	cli
    27de:	de bf       	out	0x3e, r29	; 62
    27e0:	0f be       	out	0x3f, r0	; 63
    27e2:	cd bf       	out	0x3d, r28	; 61
    27e4:	18 8d       	ldd	r17, Y+24	; 0x18
    27e6:	09 8d       	ldd	r16, Y+25	; 0x19
    27e8:	aa 8c       	ldd	r10, Y+26	; 0x1a
    27ea:	bb 8c       	ldd	r11, Y+27	; 0x1b
    27ec:	6c 8c       	ldd	r6, Y+28	; 0x1c
    27ee:	7d 8c       	ldd	r7, Y+29	; 0x1d
    27f0:	61 2f       	mov	r22, r17
    27f2:	8a 2d       	mov	r24, r10
    27f4:	0e 94 5d 10 	call	0x20ba	; 0x20ba <LCD_SetCursor>
    27f8:	19 83       	std	Y+1, r17	; 0x01
    27fa:	0a 83       	std	Y+2, r16	; 0x02
    27fc:	8e 01       	movw	r16, r28
    27fe:	02 5e       	subi	r16, 0xE2	; 226
    2800:	1f 4f       	sbci	r17, 0xFF	; 255
    2802:	65 01       	movw	r12, r10
    2804:	84 e0       	ldi	r24, 0x04	; 4
    2806:	cc 0c       	add	r12, r12
    2808:	dd 1c       	adc	r13, r13
    280a:	8a 95       	dec	r24
    280c:	e1 f7       	brne	.-8      	; 0x2806 <LCD_XYPrintf+0x4e>
    280e:	f3 01       	movw	r30, r6
    2810:	90 80       	ld	r9, Z
    2812:	99 20       	and	r9, r9
    2814:	09 f4       	brne	.+2      	; 0x2818 <LCD_XYPrintf+0x60>
    2816:	7e c1       	rjmp	.+764    	; 0x2b14 <LCD_XYPrintf+0x35c>
    2818:	85 e2       	ldi	r24, 0x25	; 37
    281a:	98 12       	cpse	r9, r24
    281c:	66 c1       	rjmp	.+716    	; 0x2aea <LCD_XYPrintf+0x332>
    281e:	43 01       	movw	r8, r6
    2820:	9f ef       	ldi	r25, 0xFF	; 255
    2822:	89 1a       	sub	r8, r25
    2824:	99 0a       	sbc	r9, r25
    2826:	f3 01       	movw	r30, r6
    2828:	91 81       	ldd	r25, Z+1	; 0x01
    282a:	80 ed       	ldi	r24, 0xD0	; 208
    282c:	89 0f       	add	r24, r25
    282e:	8a 30       	cpi	r24, 0x0A	; 10
    2830:	80 f4       	brcc	.+32     	; 0x2852 <LCD_XYPrintf+0x9a>
    2832:	20 e0       	ldi	r18, 0x00	; 0
    2834:	80 ed       	ldi	r24, 0xD0	; 208
    2836:	89 0f       	add	r24, r25
    2838:	8a 30       	cpi	r24, 0x0A	; 10
    283a:	60 f4       	brcc	.+24     	; 0x2854 <LCD_XYPrintf+0x9c>
    283c:	fa e0       	ldi	r31, 0x0A	; 10
    283e:	2f 9f       	mul	r18, r31
    2840:	80 0d       	add	r24, r0
    2842:	11 24       	eor	r1, r1
    2844:	28 2f       	mov	r18, r24
    2846:	8f ef       	ldi	r24, 0xFF	; 255
    2848:	88 1a       	sub	r8, r24
    284a:	98 0a       	sbc	r9, r24
    284c:	f4 01       	movw	r30, r8
    284e:	90 81       	ld	r25, Z
    2850:	f1 cf       	rjmp	.-30     	; 0x2834 <LCD_XYPrintf+0x7c>
    2852:	2f ef       	ldi	r18, 0xFF	; 255
    2854:	95 35       	cpi	r25, 0x55	; 85
    2856:	09 f4       	brne	.+2      	; 0x285a <LCD_XYPrintf+0xa2>
    2858:	de c0       	rjmp	.+444    	; 0x2a16 <LCD_XYPrintf+0x25e>
    285a:	78 f5       	brcc	.+94     	; 0x28ba <LCD_XYPrintf+0x102>
    285c:	9c 33       	cpi	r25, 0x3C	; 60
    285e:	09 f4       	brne	.+2      	; 0x2862 <LCD_XYPrintf+0xaa>
    2860:	62 c0       	rjmp	.+196    	; 0x2926 <LCD_XYPrintf+0x16e>
    2862:	a0 f4       	brcc	.+40     	; 0x288c <LCD_XYPrintf+0xd4>
    2864:	9e 32       	cpi	r25, 0x2E	; 46
    2866:	09 f4       	brne	.+2      	; 0x286a <LCD_XYPrintf+0xb2>
    2868:	6d c0       	rjmp	.+218    	; 0x2944 <LCD_XYPrintf+0x18c>
    286a:	40 f4       	brcc	.+16     	; 0x287c <LCD_XYPrintf+0xc4>
    286c:	95 32       	cpi	r25, 0x25	; 37
    286e:	09 f4       	brne	.+2      	; 0x2872 <LCD_XYPrintf+0xba>
    2870:	2a c1       	rjmp	.+596    	; 0x2ac6 <LCD_XYPrintf+0x30e>
    2872:	9c 32       	cpi	r25, 0x2C	; 44
    2874:	09 f0       	breq	.+2      	; 0x2878 <LCD_XYPrintf+0xc0>
    2876:	49 c1       	rjmp	.+658    	; 0x2b0a <LCD_XYPrintf+0x352>
    2878:	85 e0       	ldi	r24, 0x05	; 5
    287a:	56 c0       	rjmp	.+172    	; 0x2928 <LCD_XYPrintf+0x170>
    287c:	9a 33       	cpi	r25, 0x3A	; 58
    287e:	09 f4       	brne	.+2      	; 0x2882 <LCD_XYPrintf+0xca>
    2880:	5b c0       	rjmp	.+182    	; 0x2938 <LCD_XYPrintf+0x180>
    2882:	9b 33       	cpi	r25, 0x3B	; 59
    2884:	09 f0       	breq	.+2      	; 0x2888 <LCD_XYPrintf+0xd0>
    2886:	41 c1       	rjmp	.+642    	; 0x2b0a <LCD_XYPrintf+0x352>
    2888:	87 e0       	ldi	r24, 0x07	; 7
    288a:	4e c0       	rjmp	.+156    	; 0x2928 <LCD_XYPrintf+0x170>
    288c:	92 34       	cpi	r25, 0x42	; 66
    288e:	09 f4       	brne	.+2      	; 0x2892 <LCD_XYPrintf+0xda>
    2890:	f7 c0       	rjmp	.+494    	; 0x2a80 <LCD_XYPrintf+0x2c8>
    2892:	50 f4       	brcc	.+20     	; 0x28a8 <LCD_XYPrintf+0xf0>
    2894:	9e 33       	cpi	r25, 0x3E	; 62
    2896:	09 f4       	brne	.+2      	; 0x289a <LCD_XYPrintf+0xe2>
    2898:	44 c0       	rjmp	.+136    	; 0x2922 <LCD_XYPrintf+0x16a>
    289a:	9f 33       	cpi	r25, 0x3F	; 63
    289c:	09 f0       	breq	.+2      	; 0x28a0 <LCD_XYPrintf+0xe8>
    289e:	35 c1       	rjmp	.+618    	; 0x2b0a <LCD_XYPrintf+0x352>
    28a0:	9b 83       	std	Y+3, r25	; 0x03
    28a2:	0e 94 4b 13 	call	0x2696	; 0x2696 <LCD_PrintBlock>
    28a6:	13 c1       	rjmp	.+550    	; 0x2ace <LCD_XYPrintf+0x316>
    28a8:	94 34       	cpi	r25, 0x44	; 68
    28aa:	09 f4       	brne	.+2      	; 0x28ae <LCD_XYPrintf+0xf6>
    28ac:	88 c0       	rjmp	.+272    	; 0x29be <LCD_XYPrintf+0x206>
    28ae:	08 f4       	brcc	.+2      	; 0x28b2 <LCD_XYPrintf+0xfa>
    28b0:	4d c0       	rjmp	.+154    	; 0x294c <LCD_XYPrintf+0x194>
    28b2:	93 35       	cpi	r25, 0x53	; 83
    28b4:	09 f4       	brne	.+2      	; 0x28b8 <LCD_XYPrintf+0x100>
    28b6:	f8 c0       	rjmp	.+496    	; 0x2aa8 <LCD_XYPrintf+0x2f0>
    28b8:	28 c1       	rjmp	.+592    	; 0x2b0a <LCD_XYPrintf+0x352>
    28ba:	94 36       	cpi	r25, 0x64	; 100
    28bc:	09 f4       	brne	.+2      	; 0x28c0 <LCD_XYPrintf+0x108>
    28be:	5c c0       	rjmp	.+184    	; 0x2978 <LCD_XYPrintf+0x1c0>
    28c0:	98 f4       	brcc	.+38     	; 0x28e8 <LCD_XYPrintf+0x130>
    28c2:	9d 35       	cpi	r25, 0x5D	; 93
    28c4:	d9 f1       	breq	.+118    	; 0x293c <LCD_XYPrintf+0x184>
    28c6:	50 f4       	brcc	.+20     	; 0x28dc <LCD_XYPrintf+0x124>
    28c8:	98 35       	cpi	r25, 0x58	; 88
    28ca:	09 f4       	brne	.+2      	; 0x28ce <LCD_XYPrintf+0x116>
    28cc:	bd c0       	rjmp	.+378    	; 0x2a48 <LCD_XYPrintf+0x290>
    28ce:	9b 35       	cpi	r25, 0x5B	; 91
    28d0:	09 f0       	breq	.+2      	; 0x28d4 <LCD_XYPrintf+0x11c>
    28d2:	1b c1       	rjmp	.+566    	; 0x2b0a <LCD_XYPrintf+0x352>
    28d4:	9b 83       	std	Y+3, r25	; 0x03
    28d6:	0e 94 4e 13 	call	0x269c	; 0x269c <LCD_PrintLArrow>
    28da:	f9 c0       	rjmp	.+498    	; 0x2ace <LCD_XYPrintf+0x316>
    28dc:	92 36       	cpi	r25, 0x62	; 98
    28de:	09 f4       	brne	.+2      	; 0x28e2 <LCD_XYPrintf+0x12a>
    28e0:	c2 c0       	rjmp	.+388    	; 0x2a66 <LCD_XYPrintf+0x2ae>
    28e2:	93 36       	cpi	r25, 0x63	; 99
    28e4:	99 f1       	breq	.+102    	; 0x294c <LCD_XYPrintf+0x194>
    28e6:	11 c1       	rjmp	.+546    	; 0x2b0a <LCD_XYPrintf+0x352>
    28e8:	98 37       	cpi	r25, 0x78	; 120
    28ea:	09 f4       	brne	.+2      	; 0x28ee <LCD_XYPrintf+0x136>
    28ec:	a3 c0       	rjmp	.+326    	; 0x2a34 <LCD_XYPrintf+0x27c>
    28ee:	80 f4       	brcc	.+32     	; 0x2910 <LCD_XYPrintf+0x158>
    28f0:	93 37       	cpi	r25, 0x73	; 115
    28f2:	09 f4       	brne	.+2      	; 0x28f6 <LCD_XYPrintf+0x13e>
    28f4:	d9 c0       	rjmp	.+434    	; 0x2aa8 <LCD_XYPrintf+0x2f0>
    28f6:	95 37       	cpi	r25, 0x75	; 117
    28f8:	09 f0       	breq	.+2      	; 0x28fc <LCD_XYPrintf+0x144>
    28fa:	07 c1       	rjmp	.+526    	; 0x2b0a <LCD_XYPrintf+0x352>
    28fc:	38 01       	movw	r6, r16
    28fe:	f2 e0       	ldi	r31, 0x02	; 2
    2900:	6f 0e       	add	r6, r31
    2902:	71 1c       	adc	r7, r1
    2904:	f8 01       	movw	r30, r16
    2906:	40 81       	ld	r20, Z
    2908:	51 81       	ldd	r21, Z+1	; 0x01
    290a:	60 e0       	ldi	r22, 0x00	; 0
    290c:	70 e0       	ldi	r23, 0x00	; 0
    290e:	8c c0       	rjmp	.+280    	; 0x2a28 <LCD_XYPrintf+0x270>
    2910:	9c 37       	cpi	r25, 0x7C	; 124
    2912:	71 f0       	breq	.+28     	; 0x2930 <LCD_XYPrintf+0x178>
    2914:	9d 37       	cpi	r25, 0x7D	; 125
    2916:	71 f0       	breq	.+28     	; 0x2934 <LCD_XYPrintf+0x17c>
    2918:	9b 37       	cpi	r25, 0x7B	; 123
    291a:	09 f0       	breq	.+2      	; 0x291e <LCD_XYPrintf+0x166>
    291c:	f6 c0       	rjmp	.+492    	; 0x2b0a <LCD_XYPrintf+0x352>
    291e:	83 e0       	ldi	r24, 0x03	; 3
    2920:	03 c0       	rjmp	.+6      	; 0x2928 <LCD_XYPrintf+0x170>
    2922:	80 e0       	ldi	r24, 0x00	; 0
    2924:	01 c0       	rjmp	.+2      	; 0x2928 <LCD_XYPrintf+0x170>
    2926:	81 e0       	ldi	r24, 0x01	; 1
    2928:	9b 83       	std	Y+3, r25	; 0x03
    292a:	0e 94 ad 12 	call	0x255a	; 0x255a <LCD_DataWrite>
    292e:	cf c0       	rjmp	.+414    	; 0x2ace <LCD_XYPrintf+0x316>
    2930:	82 e0       	ldi	r24, 0x02	; 2
    2932:	fa cf       	rjmp	.-12     	; 0x2928 <LCD_XYPrintf+0x170>
    2934:	84 e0       	ldi	r24, 0x04	; 4
    2936:	f8 cf       	rjmp	.-16     	; 0x2928 <LCD_XYPrintf+0x170>
    2938:	86 e0       	ldi	r24, 0x06	; 6
    293a:	f6 cf       	rjmp	.-20     	; 0x2928 <LCD_XYPrintf+0x170>
    293c:	9b 83       	std	Y+3, r25	; 0x03
    293e:	0e 94 51 13 	call	0x26a2	; 0x26a2 <LCD_PrintRArrow>
    2942:	c5 c0       	rjmp	.+394    	; 0x2ace <LCD_XYPrintf+0x316>
    2944:	9b 83       	std	Y+3, r25	; 0x03
    2946:	0e 94 54 13 	call	0x26a8	; 0x26a8 <LCD_PrintDot>
    294a:	c1 c0       	rjmp	.+386    	; 0x2ace <LCD_XYPrintf+0x316>
    294c:	38 01       	movw	r6, r16
    294e:	f2 e0       	ldi	r31, 0x02	; 2
    2950:	6f 0e       	add	r6, r31
    2952:	71 1c       	adc	r7, r1
    2954:	f8 01       	movw	r30, r16
    2956:	10 81       	ld	r17, Z
    2958:	81 2f       	mov	r24, r17
    295a:	0e 94 72 10 	call	0x20e4	; 0x20e4 <LCD_DisplayChar>
    295e:	29 81       	ldd	r18, Y+1	; 0x01
    2960:	3a 81       	ldd	r19, Y+2	; 0x02
    2962:	f6 01       	movw	r30, r12
    2964:	e2 0f       	add	r30, r18
    2966:	f3 1f       	adc	r31, r19
    2968:	ec 58       	subi	r30, 0x8C	; 140
    296a:	fd 4f       	sbci	r31, 0xFD	; 253
    296c:	10 83       	st	Z, r17
    296e:	2f 5f       	subi	r18, 0xFF	; 255
    2970:	3f 4f       	sbci	r19, 0xFF	; 255
    2972:	3a 83       	std	Y+2, r19	; 0x02
    2974:	29 83       	std	Y+1, r18	; 0x01
    2976:	a5 c0       	rjmp	.+330    	; 0x2ac2 <LCD_XYPrintf+0x30a>
    2978:	38 01       	movw	r6, r16
    297a:	f2 e0       	ldi	r31, 0x02	; 2
    297c:	6f 0e       	add	r6, r31
    297e:	71 1c       	adc	r7, r1
    2980:	f8 01       	movw	r30, r16
    2982:	00 81       	ld	r16, Z
    2984:	11 81       	ldd	r17, Z+1	; 0x01
    2986:	17 ff       	sbrs	r17, 7
    2988:	14 c0       	rjmp	.+40     	; 0x29b2 <LCD_XYPrintf+0x1fa>
    298a:	11 95       	neg	r17
    298c:	01 95       	neg	r16
    298e:	11 09       	sbc	r17, r1
    2990:	8d e2       	ldi	r24, 0x2D	; 45
    2992:	2f 83       	std	Y+7, r18	; 0x07
    2994:	0e 94 72 10 	call	0x20e4	; 0x20e4 <LCD_DisplayChar>
    2998:	89 81       	ldd	r24, Y+1	; 0x01
    299a:	9a 81       	ldd	r25, Y+2	; 0x02
    299c:	f6 01       	movw	r30, r12
    299e:	e8 0f       	add	r30, r24
    29a0:	f9 1f       	adc	r31, r25
    29a2:	ec 58       	subi	r30, 0x8C	; 140
    29a4:	fd 4f       	sbci	r31, 0xFD	; 253
    29a6:	3d e2       	ldi	r19, 0x2D	; 45
    29a8:	30 83       	st	Z, r19
    29aa:	01 96       	adiw	r24, 0x01	; 1
    29ac:	9a 83       	std	Y+2, r25	; 0x02
    29ae:	89 83       	std	Y+1, r24	; 0x01
    29b0:	2f 81       	ldd	r18, Y+7	; 0x07
    29b2:	a8 01       	movw	r20, r16
    29b4:	66 27       	eor	r22, r22
    29b6:	57 fd       	sbrc	r21, 7
    29b8:	60 95       	com	r22
    29ba:	76 2f       	mov	r23, r22
    29bc:	35 c0       	rjmp	.+106    	; 0x2a28 <LCD_XYPrintf+0x270>
    29be:	38 01       	movw	r6, r16
    29c0:	f4 e0       	ldi	r31, 0x04	; 4
    29c2:	6f 0e       	add	r6, r31
    29c4:	71 1c       	adc	r7, r1
    29c6:	f8 01       	movw	r30, r16
    29c8:	40 81       	ld	r20, Z
    29ca:	51 81       	ldd	r21, Z+1	; 0x01
    29cc:	62 81       	ldd	r22, Z+2	; 0x02
    29ce:	73 81       	ldd	r23, Z+3	; 0x03
    29d0:	77 ff       	sbrs	r23, 7
    29d2:	2a c0       	rjmp	.+84     	; 0x2a28 <LCD_XYPrintf+0x270>
    29d4:	70 95       	com	r23
    29d6:	60 95       	com	r22
    29d8:	50 95       	com	r21
    29da:	41 95       	neg	r20
    29dc:	5f 4f       	sbci	r21, 0xFF	; 255
    29de:	6f 4f       	sbci	r22, 0xFF	; 255
    29e0:	7f 4f       	sbci	r23, 0xFF	; 255
    29e2:	8d e2       	ldi	r24, 0x2D	; 45
    29e4:	2f 83       	std	Y+7, r18	; 0x07
    29e6:	4b 83       	std	Y+3, r20	; 0x03
    29e8:	5c 83       	std	Y+4, r21	; 0x04
    29ea:	6d 83       	std	Y+5, r22	; 0x05
    29ec:	7e 83       	std	Y+6, r23	; 0x06
    29ee:	0e 94 72 10 	call	0x20e4	; 0x20e4 <LCD_DisplayChar>
    29f2:	89 81       	ldd	r24, Y+1	; 0x01
    29f4:	9a 81       	ldd	r25, Y+2	; 0x02
    29f6:	f6 01       	movw	r30, r12
    29f8:	e8 0f       	add	r30, r24
    29fa:	f9 1f       	adc	r31, r25
    29fc:	ec 58       	subi	r30, 0x8C	; 140
    29fe:	fd 4f       	sbci	r31, 0xFD	; 253
    2a00:	3d e2       	ldi	r19, 0x2D	; 45
    2a02:	30 83       	st	Z, r19
    2a04:	01 96       	adiw	r24, 0x01	; 1
    2a06:	9a 83       	std	Y+2, r25	; 0x02
    2a08:	89 83       	std	Y+1, r24	; 0x01
    2a0a:	7e 81       	ldd	r23, Y+6	; 0x06
    2a0c:	6d 81       	ldd	r22, Y+5	; 0x05
    2a0e:	5c 81       	ldd	r21, Y+4	; 0x04
    2a10:	4b 81       	ldd	r20, Y+3	; 0x03
    2a12:	2f 81       	ldd	r18, Y+7	; 0x07
    2a14:	09 c0       	rjmp	.+18     	; 0x2a28 <LCD_XYPrintf+0x270>
    2a16:	38 01       	movw	r6, r16
    2a18:	f4 e0       	ldi	r31, 0x04	; 4
    2a1a:	6f 0e       	add	r6, r31
    2a1c:	71 1c       	adc	r7, r1
    2a1e:	f8 01       	movw	r30, r16
    2a20:	40 81       	ld	r20, Z
    2a22:	51 81       	ldd	r21, Z+1	; 0x01
    2a24:	62 81       	ldd	r22, Z+2	; 0x02
    2a26:	73 81       	ldd	r23, Z+3	; 0x03
    2a28:	75 01       	movw	r14, r10
    2a2a:	8e 01       	movw	r16, r28
    2a2c:	0f 5f       	subi	r16, 0xFF	; 255
    2a2e:	1f 4f       	sbci	r17, 0xFF	; 255
    2a30:	8a e0       	ldi	r24, 0x0A	; 10
    2a32:	37 c0       	rjmp	.+110    	; 0x2aa2 <LCD_XYPrintf+0x2ea>
    2a34:	38 01       	movw	r6, r16
    2a36:	f2 e0       	ldi	r31, 0x02	; 2
    2a38:	6f 0e       	add	r6, r31
    2a3a:	71 1c       	adc	r7, r1
    2a3c:	f8 01       	movw	r30, r16
    2a3e:	40 81       	ld	r20, Z
    2a40:	51 81       	ldd	r21, Z+1	; 0x01
    2a42:	60 e0       	ldi	r22, 0x00	; 0
    2a44:	70 e0       	ldi	r23, 0x00	; 0
    2a46:	09 c0       	rjmp	.+18     	; 0x2a5a <LCD_XYPrintf+0x2a2>
    2a48:	38 01       	movw	r6, r16
    2a4a:	f4 e0       	ldi	r31, 0x04	; 4
    2a4c:	6f 0e       	add	r6, r31
    2a4e:	71 1c       	adc	r7, r1
    2a50:	f8 01       	movw	r30, r16
    2a52:	40 81       	ld	r20, Z
    2a54:	51 81       	ldd	r21, Z+1	; 0x01
    2a56:	62 81       	ldd	r22, Z+2	; 0x02
    2a58:	73 81       	ldd	r23, Z+3	; 0x03
    2a5a:	75 01       	movw	r14, r10
    2a5c:	8e 01       	movw	r16, r28
    2a5e:	0f 5f       	subi	r16, 0xFF	; 255
    2a60:	1f 4f       	sbci	r17, 0xFF	; 255
    2a62:	80 e1       	ldi	r24, 0x10	; 16
    2a64:	1e c0       	rjmp	.+60     	; 0x2aa2 <LCD_XYPrintf+0x2ea>
    2a66:	38 01       	movw	r6, r16
    2a68:	f2 e0       	ldi	r31, 0x02	; 2
    2a6a:	6f 0e       	add	r6, r31
    2a6c:	71 1c       	adc	r7, r1
    2a6e:	f8 01       	movw	r30, r16
    2a70:	40 81       	ld	r20, Z
    2a72:	51 81       	ldd	r21, Z+1	; 0x01
    2a74:	2f 3f       	cpi	r18, 0xFF	; 255
    2a76:	09 f4       	brne	.+2      	; 0x2a7a <LCD_XYPrintf+0x2c2>
    2a78:	20 e1       	ldi	r18, 0x10	; 16
    2a7a:	60 e0       	ldi	r22, 0x00	; 0
    2a7c:	70 e0       	ldi	r23, 0x00	; 0
    2a7e:	0c c0       	rjmp	.+24     	; 0x2a98 <LCD_XYPrintf+0x2e0>
    2a80:	38 01       	movw	r6, r16
    2a82:	f4 e0       	ldi	r31, 0x04	; 4
    2a84:	6f 0e       	add	r6, r31
    2a86:	71 1c       	adc	r7, r1
    2a88:	f8 01       	movw	r30, r16
    2a8a:	40 81       	ld	r20, Z
    2a8c:	51 81       	ldd	r21, Z+1	; 0x01
    2a8e:	62 81       	ldd	r22, Z+2	; 0x02
    2a90:	73 81       	ldd	r23, Z+3	; 0x03
    2a92:	2f 3f       	cpi	r18, 0xFF	; 255
    2a94:	09 f4       	brne	.+2      	; 0x2a98 <LCD_XYPrintf+0x2e0>
    2a96:	20 e1       	ldi	r18, 0x10	; 16
    2a98:	75 01       	movw	r14, r10
    2a9a:	8e 01       	movw	r16, r28
    2a9c:	0f 5f       	subi	r16, 0xFF	; 255
    2a9e:	1f 4f       	sbci	r17, 0xFF	; 255
    2aa0:	82 e0       	ldi	r24, 0x02	; 2
    2aa2:	0e 94 c2 11 	call	0x2384	; 0x2384 <LCD_DisplayNumberWithAddingToBuffor>
    2aa6:	0d c0       	rjmp	.+26     	; 0x2ac2 <LCD_XYPrintf+0x30a>
    2aa8:	38 01       	movw	r6, r16
    2aaa:	f2 e0       	ldi	r31, 0x02	; 2
    2aac:	6f 0e       	add	r6, r31
    2aae:	71 1c       	adc	r7, r1
    2ab0:	a5 01       	movw	r20, r10
    2ab2:	be 01       	movw	r22, r28
    2ab4:	6f 5f       	subi	r22, 0xFF	; 255
    2ab6:	7f 4f       	sbci	r23, 0xFF	; 255
    2ab8:	f8 01       	movw	r30, r16
    2aba:	80 81       	ld	r24, Z
    2abc:	91 81       	ldd	r25, Z+1	; 0x01
    2abe:	0e 94 57 13 	call	0x26ae	; 0x26ae <LCD_DisplayStringWithAddingToBuffor>
    2ac2:	83 01       	movw	r16, r6
    2ac4:	22 c0       	rjmp	.+68     	; 0x2b0a <LCD_XYPrintf+0x352>
    2ac6:	85 e2       	ldi	r24, 0x25	; 37
    2ac8:	9b 83       	std	Y+3, r25	; 0x03
    2aca:	0e 94 72 10 	call	0x20e4	; 0x20e4 <LCD_DisplayChar>
    2ace:	29 81       	ldd	r18, Y+1	; 0x01
    2ad0:	3a 81       	ldd	r19, Y+2	; 0x02
    2ad2:	f6 01       	movw	r30, r12
    2ad4:	e2 0f       	add	r30, r18
    2ad6:	f3 1f       	adc	r31, r19
    2ad8:	ec 58       	subi	r30, 0x8C	; 140
    2ada:	fd 4f       	sbci	r31, 0xFD	; 253
    2adc:	9b 81       	ldd	r25, Y+3	; 0x03
    2ade:	90 83       	st	Z, r25
    2ae0:	2f 5f       	subi	r18, 0xFF	; 255
    2ae2:	3f 4f       	sbci	r19, 0xFF	; 255
    2ae4:	3a 83       	std	Y+2, r19	; 0x02
    2ae6:	29 83       	std	Y+1, r18	; 0x01
    2ae8:	10 c0       	rjmp	.+32     	; 0x2b0a <LCD_XYPrintf+0x352>
    2aea:	89 2d       	mov	r24, r9
    2aec:	0e 94 72 10 	call	0x20e4	; 0x20e4 <LCD_DisplayChar>
    2af0:	29 81       	ldd	r18, Y+1	; 0x01
    2af2:	3a 81       	ldd	r19, Y+2	; 0x02
    2af4:	f6 01       	movw	r30, r12
    2af6:	e2 0f       	add	r30, r18
    2af8:	f3 1f       	adc	r31, r19
    2afa:	ec 58       	subi	r30, 0x8C	; 140
    2afc:	fd 4f       	sbci	r31, 0xFD	; 253
    2afe:	90 82       	st	Z, r9
    2b00:	2f 5f       	subi	r18, 0xFF	; 255
    2b02:	3f 4f       	sbci	r19, 0xFF	; 255
    2b04:	3a 83       	std	Y+2, r19	; 0x02
    2b06:	29 83       	std	Y+1, r18	; 0x01
    2b08:	43 01       	movw	r8, r6
    2b0a:	34 01       	movw	r6, r8
    2b0c:	ff ef       	ldi	r31, 0xFF	; 255
    2b0e:	6f 1a       	sub	r6, r31
    2b10:	7f 0a       	sbc	r7, r31
    2b12:	7d ce       	rjmp	.-774    	; 0x280e <LCD_XYPrintf+0x56>
    2b14:	27 96       	adiw	r28, 0x07	; 7
    2b16:	0f b6       	in	r0, 0x3f	; 63
    2b18:	f8 94       	cli
    2b1a:	de bf       	out	0x3e, r29	; 62
    2b1c:	0f be       	out	0x3f, r0	; 63
    2b1e:	cd bf       	out	0x3d, r28	; 61
    2b20:	df 91       	pop	r29
    2b22:	cf 91       	pop	r28
    2b24:	1f 91       	pop	r17
    2b26:	0f 91       	pop	r16
    2b28:	ff 90       	pop	r15
    2b2a:	ef 90       	pop	r14
    2b2c:	df 90       	pop	r13
    2b2e:	cf 90       	pop	r12
    2b30:	bf 90       	pop	r11
    2b32:	af 90       	pop	r10
    2b34:	9f 90       	pop	r9
    2b36:	8f 90       	pop	r8
    2b38:	7f 90       	pop	r7
    2b3a:	6f 90       	pop	r6
    2b3c:	08 95       	ret

00002b3e <LCD_RefreshScreen>:
    2b3e:	fc 01       	movw	r30, r24
    2b40:	82 81       	ldd	r24, Z+2	; 0x02
    2b42:	93 81       	ldd	r25, Z+3	; 0x03
    2b44:	86 17       	cp	r24, r22
    2b46:	97 07       	cpc	r25, r23
    2b48:	ec f0       	brlt	.+58     	; 0x2b84 <LCD_RefreshScreen+0x46>
    2b4a:	84 e7       	ldi	r24, 0x74	; 116
    2b4c:	92 e0       	ldi	r25, 0x02	; 2
    2b4e:	9f 93       	push	r25
    2b50:	8f 93       	push	r24
    2b52:	1f 92       	push	r1
    2b54:	1f 92       	push	r1
    2b56:	1f 92       	push	r1
    2b58:	1f 92       	push	r1
    2b5a:	0e 94 dc 13 	call	0x27b8	; 0x27b8 <LCD_XYPrintf>
    2b5e:	84 e8       	ldi	r24, 0x84	; 132
    2b60:	92 e0       	ldi	r25, 0x02	; 2
    2b62:	9f 93       	push	r25
    2b64:	8f 93       	push	r24
    2b66:	1f 92       	push	r1
    2b68:	1f 92       	push	r1
    2b6a:	1f 92       	push	r1
    2b6c:	81 e0       	ldi	r24, 0x01	; 1
    2b6e:	8f 93       	push	r24
    2b70:	0e 94 dc 13 	call	0x27b8	; 0x27b8 <LCD_XYPrintf>
    2b74:	8d b7       	in	r24, 0x3d	; 61
    2b76:	9e b7       	in	r25, 0x3e	; 62
    2b78:	0c 96       	adiw	r24, 0x0c	; 12
    2b7a:	0f b6       	in	r0, 0x3f	; 63
    2b7c:	f8 94       	cli
    2b7e:	9e bf       	out	0x3e, r25	; 62
    2b80:	0f be       	out	0x3f, r0	; 63
    2b82:	8d bf       	out	0x3d, r24	; 61
    2b84:	08 95       	ret

00002b86 <LCD_Printf>:
    2b86:	cf 92       	push	r12
    2b88:	df 92       	push	r13
    2b8a:	ef 92       	push	r14
    2b8c:	ff 92       	push	r15
    2b8e:	0f 93       	push	r16
    2b90:	1f 93       	push	r17
    2b92:	cf 93       	push	r28
    2b94:	df 93       	push	r29
    2b96:	00 d0       	rcall	.+0      	; 0x2b98 <LCD_Printf+0x12>
    2b98:	00 d0       	rcall	.+0      	; 0x2b9a <LCD_Printf+0x14>
    2b9a:	1f 92       	push	r1
    2b9c:	cd b7       	in	r28, 0x3d	; 61
    2b9e:	de b7       	in	r29, 0x3e	; 62
    2ba0:	fe 01       	movw	r30, r28
    2ba2:	70 96       	adiw	r30, 0x10	; 16
    2ba4:	e1 90       	ld	r14, Z+
    2ba6:	f1 90       	ld	r15, Z+
    2ba8:	6f 01       	movw	r12, r30
    2baa:	f7 01       	movw	r30, r14
    2bac:	80 81       	ld	r24, Z
    2bae:	88 23       	and	r24, r24
    2bb0:	09 f4       	brne	.+2      	; 0x2bb4 <LCD_Printf+0x2e>
    2bb2:	29 c1       	rjmp	.+594    	; 0x2e06 <LCD_Printf+0x280>
    2bb4:	85 32       	cpi	r24, 0x25	; 37
    2bb6:	09 f0       	breq	.+2      	; 0x2bba <LCD_Printf+0x34>
    2bb8:	1e c1       	rjmp	.+572    	; 0x2df6 <LCD_Printf+0x270>
    2bba:	87 01       	movw	r16, r14
    2bbc:	0f 5f       	subi	r16, 0xFF	; 255
    2bbe:	1f 4f       	sbci	r17, 0xFF	; 255
    2bc0:	f7 01       	movw	r30, r14
    2bc2:	81 81       	ldd	r24, Z+1	; 0x01
    2bc4:	90 ed       	ldi	r25, 0xD0	; 208
    2bc6:	98 0f       	add	r25, r24
    2bc8:	9a 30       	cpi	r25, 0x0A	; 10
    2bca:	78 f4       	brcc	.+30     	; 0x2bea <LCD_Printf+0x64>
    2bcc:	20 e0       	ldi	r18, 0x00	; 0
    2bce:	90 ed       	ldi	r25, 0xD0	; 208
    2bd0:	98 0f       	add	r25, r24
    2bd2:	9a 30       	cpi	r25, 0x0A	; 10
    2bd4:	58 f4       	brcc	.+22     	; 0x2bec <LCD_Printf+0x66>
    2bd6:	fa e0       	ldi	r31, 0x0A	; 10
    2bd8:	2f 9f       	mul	r18, r31
    2bda:	90 0d       	add	r25, r0
    2bdc:	11 24       	eor	r1, r1
    2bde:	29 2f       	mov	r18, r25
    2be0:	0f 5f       	subi	r16, 0xFF	; 255
    2be2:	1f 4f       	sbci	r17, 0xFF	; 255
    2be4:	f8 01       	movw	r30, r16
    2be6:	80 81       	ld	r24, Z
    2be8:	f2 cf       	rjmp	.-28     	; 0x2bce <LCD_Printf+0x48>
    2bea:	2f ef       	ldi	r18, 0xFF	; 255
    2bec:	85 35       	cpi	r24, 0x55	; 85
    2bee:	09 f4       	brne	.+2      	; 0x2bf2 <LCD_Printf+0x6c>
    2bf0:	b4 c0       	rjmp	.+360    	; 0x2d5a <LCD_Printf+0x1d4>
    2bf2:	70 f5       	brcc	.+92     	; 0x2c50 <LCD_Printf+0xca>
    2bf4:	8c 33       	cpi	r24, 0x3C	; 60
    2bf6:	09 f4       	brne	.+2      	; 0x2bfa <LCD_Printf+0x74>
    2bf8:	60 c0       	rjmp	.+192    	; 0x2cba <LCD_Printf+0x134>
    2bfa:	a0 f4       	brcc	.+40     	; 0x2c24 <LCD_Printf+0x9e>
    2bfc:	8e 32       	cpi	r24, 0x2E	; 46
    2bfe:	09 f4       	brne	.+2      	; 0x2c02 <LCD_Printf+0x7c>
    2c00:	69 c0       	rjmp	.+210    	; 0x2cd4 <LCD_Printf+0x14e>
    2c02:	40 f4       	brcc	.+16     	; 0x2c14 <LCD_Printf+0x8e>
    2c04:	85 32       	cpi	r24, 0x25	; 37
    2c06:	09 f4       	brne	.+2      	; 0x2c0a <LCD_Printf+0x84>
    2c08:	f2 c0       	rjmp	.+484    	; 0x2dee <LCD_Printf+0x268>
    2c0a:	8c 32       	cpi	r24, 0x2C	; 44
    2c0c:	09 f0       	breq	.+2      	; 0x2c10 <LCD_Printf+0x8a>
    2c0e:	f6 c0       	rjmp	.+492    	; 0x2dfc <LCD_Printf+0x276>
    2c10:	85 e0       	ldi	r24, 0x05	; 5
    2c12:	5a c0       	rjmp	.+180    	; 0x2cc8 <LCD_Printf+0x142>
    2c14:	8a 33       	cpi	r24, 0x3A	; 58
    2c16:	09 f4       	brne	.+2      	; 0x2c1a <LCD_Printf+0x94>
    2c18:	56 c0       	rjmp	.+172    	; 0x2cc6 <LCD_Printf+0x140>
    2c1a:	8b 33       	cpi	r24, 0x3B	; 59
    2c1c:	09 f0       	breq	.+2      	; 0x2c20 <LCD_Printf+0x9a>
    2c1e:	ee c0       	rjmp	.+476    	; 0x2dfc <LCD_Printf+0x276>
    2c20:	87 e0       	ldi	r24, 0x07	; 7
    2c22:	52 c0       	rjmp	.+164    	; 0x2cc8 <LCD_Printf+0x142>
    2c24:	82 34       	cpi	r24, 0x42	; 66
    2c26:	09 f4       	brne	.+2      	; 0x2c2a <LCD_Printf+0xa4>
    2c28:	c7 c0       	rjmp	.+398    	; 0x2db8 <LCD_Printf+0x232>
    2c2a:	48 f4       	brcc	.+18     	; 0x2c3e <LCD_Printf+0xb8>
    2c2c:	8e 33       	cpi	r24, 0x3E	; 62
    2c2e:	09 f4       	brne	.+2      	; 0x2c32 <LCD_Printf+0xac>
    2c30:	42 c0       	rjmp	.+132    	; 0x2cb6 <LCD_Printf+0x130>
    2c32:	8f 33       	cpi	r24, 0x3F	; 63
    2c34:	09 f0       	breq	.+2      	; 0x2c38 <LCD_Printf+0xb2>
    2c36:	e2 c0       	rjmp	.+452    	; 0x2dfc <LCD_Printf+0x276>
    2c38:	0e 94 4b 13 	call	0x2696	; 0x2696 <LCD_PrintBlock>
    2c3c:	df c0       	rjmp	.+446    	; 0x2dfc <LCD_Printf+0x276>
    2c3e:	84 34       	cpi	r24, 0x44	; 68
    2c40:	09 f4       	brne	.+2      	; 0x2c44 <LCD_Printf+0xbe>
    2c42:	6b c0       	rjmp	.+214    	; 0x2d1a <LCD_Printf+0x194>
    2c44:	08 f4       	brcc	.+2      	; 0x2c48 <LCD_Printf+0xc2>
    2c46:	49 c0       	rjmp	.+146    	; 0x2cda <LCD_Printf+0x154>
    2c48:	83 35       	cpi	r24, 0x53	; 83
    2c4a:	09 f4       	brne	.+2      	; 0x2c4e <LCD_Printf+0xc8>
    2c4c:	c5 c0       	rjmp	.+394    	; 0x2dd8 <LCD_Printf+0x252>
    2c4e:	d6 c0       	rjmp	.+428    	; 0x2dfc <LCD_Printf+0x276>
    2c50:	84 36       	cpi	r24, 0x64	; 100
    2c52:	09 f4       	brne	.+2      	; 0x2c56 <LCD_Printf+0xd0>
    2c54:	4b c0       	rjmp	.+150    	; 0x2cec <LCD_Printf+0x166>
    2c56:	90 f4       	brcc	.+36     	; 0x2c7c <LCD_Printf+0xf6>
    2c58:	8d 35       	cpi	r24, 0x5D	; 93
    2c5a:	c9 f1       	breq	.+114    	; 0x2cce <LCD_Printf+0x148>
    2c5c:	48 f4       	brcc	.+18     	; 0x2c70 <LCD_Printf+0xea>
    2c5e:	88 35       	cpi	r24, 0x58	; 88
    2c60:	09 f4       	brne	.+2      	; 0x2c64 <LCD_Printf+0xde>
    2c62:	90 c0       	rjmp	.+288    	; 0x2d84 <LCD_Printf+0x1fe>
    2c64:	8b 35       	cpi	r24, 0x5B	; 91
    2c66:	09 f0       	breq	.+2      	; 0x2c6a <LCD_Printf+0xe4>
    2c68:	c9 c0       	rjmp	.+402    	; 0x2dfc <LCD_Printf+0x276>
    2c6a:	0e 94 4e 13 	call	0x269c	; 0x269c <LCD_PrintLArrow>
    2c6e:	c6 c0       	rjmp	.+396    	; 0x2dfc <LCD_Printf+0x276>
    2c70:	82 36       	cpi	r24, 0x62	; 98
    2c72:	09 f4       	brne	.+2      	; 0x2c76 <LCD_Printf+0xf0>
    2c74:	94 c0       	rjmp	.+296    	; 0x2d9e <LCD_Printf+0x218>
    2c76:	83 36       	cpi	r24, 0x63	; 99
    2c78:	81 f1       	breq	.+96     	; 0x2cda <LCD_Printf+0x154>
    2c7a:	c0 c0       	rjmp	.+384    	; 0x2dfc <LCD_Printf+0x276>
    2c7c:	88 37       	cpi	r24, 0x78	; 120
    2c7e:	09 f4       	brne	.+2      	; 0x2c82 <LCD_Printf+0xfc>
    2c80:	77 c0       	rjmp	.+238    	; 0x2d70 <LCD_Printf+0x1ea>
    2c82:	80 f4       	brcc	.+32     	; 0x2ca4 <LCD_Printf+0x11e>
    2c84:	83 37       	cpi	r24, 0x73	; 115
    2c86:	09 f4       	brne	.+2      	; 0x2c8a <LCD_Printf+0x104>
    2c88:	a7 c0       	rjmp	.+334    	; 0x2dd8 <LCD_Printf+0x252>
    2c8a:	85 37       	cpi	r24, 0x75	; 117
    2c8c:	09 f0       	breq	.+2      	; 0x2c90 <LCD_Printf+0x10a>
    2c8e:	b6 c0       	rjmp	.+364    	; 0x2dfc <LCD_Printf+0x276>
    2c90:	76 01       	movw	r14, r12
    2c92:	f2 e0       	ldi	r31, 0x02	; 2
    2c94:	ef 0e       	add	r14, r31
    2c96:	f1 1c       	adc	r15, r1
    2c98:	f6 01       	movw	r30, r12
    2c9a:	40 81       	ld	r20, Z
    2c9c:	51 81       	ldd	r21, Z+1	; 0x01
    2c9e:	60 e0       	ldi	r22, 0x00	; 0
    2ca0:	70 e0       	ldi	r23, 0x00	; 0
    2ca2:	64 c0       	rjmp	.+200    	; 0x2d6c <LCD_Printf+0x1e6>
    2ca4:	8c 37       	cpi	r24, 0x7C	; 124
    2ca6:	59 f0       	breq	.+22     	; 0x2cbe <LCD_Printf+0x138>
    2ca8:	8d 37       	cpi	r24, 0x7D	; 125
    2caa:	59 f0       	breq	.+22     	; 0x2cc2 <LCD_Printf+0x13c>
    2cac:	8b 37       	cpi	r24, 0x7B	; 123
    2cae:	09 f0       	breq	.+2      	; 0x2cb2 <LCD_Printf+0x12c>
    2cb0:	a5 c0       	rjmp	.+330    	; 0x2dfc <LCD_Printf+0x276>
    2cb2:	83 e0       	ldi	r24, 0x03	; 3
    2cb4:	09 c0       	rjmp	.+18     	; 0x2cc8 <LCD_Printf+0x142>
    2cb6:	80 e0       	ldi	r24, 0x00	; 0
    2cb8:	07 c0       	rjmp	.+14     	; 0x2cc8 <LCD_Printf+0x142>
    2cba:	81 e0       	ldi	r24, 0x01	; 1
    2cbc:	05 c0       	rjmp	.+10     	; 0x2cc8 <LCD_Printf+0x142>
    2cbe:	82 e0       	ldi	r24, 0x02	; 2
    2cc0:	03 c0       	rjmp	.+6      	; 0x2cc8 <LCD_Printf+0x142>
    2cc2:	84 e0       	ldi	r24, 0x04	; 4
    2cc4:	01 c0       	rjmp	.+2      	; 0x2cc8 <LCD_Printf+0x142>
    2cc6:	86 e0       	ldi	r24, 0x06	; 6
    2cc8:	0e 94 ad 12 	call	0x255a	; 0x255a <LCD_DataWrite>
    2ccc:	97 c0       	rjmp	.+302    	; 0x2dfc <LCD_Printf+0x276>
    2cce:	0e 94 51 13 	call	0x26a2	; 0x26a2 <LCD_PrintRArrow>
    2cd2:	94 c0       	rjmp	.+296    	; 0x2dfc <LCD_Printf+0x276>
    2cd4:	0e 94 54 13 	call	0x26a8	; 0x26a8 <LCD_PrintDot>
    2cd8:	91 c0       	rjmp	.+290    	; 0x2dfc <LCD_Printf+0x276>
    2cda:	76 01       	movw	r14, r12
    2cdc:	f2 e0       	ldi	r31, 0x02	; 2
    2cde:	ef 0e       	add	r14, r31
    2ce0:	f1 1c       	adc	r15, r1
    2ce2:	f6 01       	movw	r30, r12
    2ce4:	80 81       	ld	r24, Z
    2ce6:	0e 94 72 10 	call	0x20e4	; 0x20e4 <LCD_DisplayChar>
    2cea:	7f c0       	rjmp	.+254    	; 0x2dea <LCD_Printf+0x264>
    2cec:	76 01       	movw	r14, r12
    2cee:	f2 e0       	ldi	r31, 0x02	; 2
    2cf0:	ef 0e       	add	r14, r31
    2cf2:	f1 1c       	adc	r15, r1
    2cf4:	f6 01       	movw	r30, r12
    2cf6:	c0 80       	ld	r12, Z
    2cf8:	d1 80       	ldd	r13, Z+1	; 0x01
    2cfa:	d7 fe       	sbrs	r13, 7
    2cfc:	08 c0       	rjmp	.+16     	; 0x2d0e <LCD_Printf+0x188>
    2cfe:	d1 94       	neg	r13
    2d00:	c1 94       	neg	r12
    2d02:	d1 08       	sbc	r13, r1
    2d04:	8d e2       	ldi	r24, 0x2D	; 45
    2d06:	2d 83       	std	Y+5, r18	; 0x05
    2d08:	0e 94 72 10 	call	0x20e4	; 0x20e4 <LCD_DisplayChar>
    2d0c:	2d 81       	ldd	r18, Y+5	; 0x05
    2d0e:	a6 01       	movw	r20, r12
    2d10:	66 27       	eor	r22, r22
    2d12:	57 fd       	sbrc	r21, 7
    2d14:	60 95       	com	r22
    2d16:	76 2f       	mov	r23, r22
    2d18:	29 c0       	rjmp	.+82     	; 0x2d6c <LCD_Printf+0x1e6>
    2d1a:	76 01       	movw	r14, r12
    2d1c:	f4 e0       	ldi	r31, 0x04	; 4
    2d1e:	ef 0e       	add	r14, r31
    2d20:	f1 1c       	adc	r15, r1
    2d22:	f6 01       	movw	r30, r12
    2d24:	40 81       	ld	r20, Z
    2d26:	51 81       	ldd	r21, Z+1	; 0x01
    2d28:	62 81       	ldd	r22, Z+2	; 0x02
    2d2a:	73 81       	ldd	r23, Z+3	; 0x03
    2d2c:	77 ff       	sbrs	r23, 7
    2d2e:	1e c0       	rjmp	.+60     	; 0x2d6c <LCD_Printf+0x1e6>
    2d30:	70 95       	com	r23
    2d32:	60 95       	com	r22
    2d34:	50 95       	com	r21
    2d36:	41 95       	neg	r20
    2d38:	5f 4f       	sbci	r21, 0xFF	; 255
    2d3a:	6f 4f       	sbci	r22, 0xFF	; 255
    2d3c:	7f 4f       	sbci	r23, 0xFF	; 255
    2d3e:	8d e2       	ldi	r24, 0x2D	; 45
    2d40:	2d 83       	std	Y+5, r18	; 0x05
    2d42:	49 83       	std	Y+1, r20	; 0x01
    2d44:	5a 83       	std	Y+2, r21	; 0x02
    2d46:	6b 83       	std	Y+3, r22	; 0x03
    2d48:	7c 83       	std	Y+4, r23	; 0x04
    2d4a:	0e 94 72 10 	call	0x20e4	; 0x20e4 <LCD_DisplayChar>
    2d4e:	7c 81       	ldd	r23, Y+4	; 0x04
    2d50:	6b 81       	ldd	r22, Y+3	; 0x03
    2d52:	5a 81       	ldd	r21, Y+2	; 0x02
    2d54:	49 81       	ldd	r20, Y+1	; 0x01
    2d56:	2d 81       	ldd	r18, Y+5	; 0x05
    2d58:	09 c0       	rjmp	.+18     	; 0x2d6c <LCD_Printf+0x1e6>
    2d5a:	76 01       	movw	r14, r12
    2d5c:	f4 e0       	ldi	r31, 0x04	; 4
    2d5e:	ef 0e       	add	r14, r31
    2d60:	f1 1c       	adc	r15, r1
    2d62:	f6 01       	movw	r30, r12
    2d64:	40 81       	ld	r20, Z
    2d66:	51 81       	ldd	r21, Z+1	; 0x01
    2d68:	62 81       	ldd	r22, Z+2	; 0x02
    2d6a:	73 81       	ldd	r23, Z+3	; 0x03
    2d6c:	8a e0       	ldi	r24, 0x0A	; 10
    2d6e:	14 c0       	rjmp	.+40     	; 0x2d98 <LCD_Printf+0x212>
    2d70:	76 01       	movw	r14, r12
    2d72:	f2 e0       	ldi	r31, 0x02	; 2
    2d74:	ef 0e       	add	r14, r31
    2d76:	f1 1c       	adc	r15, r1
    2d78:	f6 01       	movw	r30, r12
    2d7a:	40 81       	ld	r20, Z
    2d7c:	51 81       	ldd	r21, Z+1	; 0x01
    2d7e:	60 e0       	ldi	r22, 0x00	; 0
    2d80:	70 e0       	ldi	r23, 0x00	; 0
    2d82:	09 c0       	rjmp	.+18     	; 0x2d96 <LCD_Printf+0x210>
    2d84:	76 01       	movw	r14, r12
    2d86:	f4 e0       	ldi	r31, 0x04	; 4
    2d88:	ef 0e       	add	r14, r31
    2d8a:	f1 1c       	adc	r15, r1
    2d8c:	f6 01       	movw	r30, r12
    2d8e:	40 81       	ld	r20, Z
    2d90:	51 81       	ldd	r21, Z+1	; 0x01
    2d92:	62 81       	ldd	r22, Z+2	; 0x02
    2d94:	73 81       	ldd	r23, Z+3	; 0x03
    2d96:	80 e1       	ldi	r24, 0x10	; 16
    2d98:	0e 94 2b 11 	call	0x2256	; 0x2256 <LCD_DisplayNumber>
    2d9c:	26 c0       	rjmp	.+76     	; 0x2dea <LCD_Printf+0x264>
    2d9e:	76 01       	movw	r14, r12
    2da0:	f2 e0       	ldi	r31, 0x02	; 2
    2da2:	ef 0e       	add	r14, r31
    2da4:	f1 1c       	adc	r15, r1
    2da6:	f6 01       	movw	r30, r12
    2da8:	60 81       	ld	r22, Z
    2daa:	71 81       	ldd	r23, Z+1	; 0x01
    2dac:	2f 3f       	cpi	r18, 0xFF	; 255
    2dae:	09 f4       	brne	.+2      	; 0x2db2 <LCD_Printf+0x22c>
    2db0:	20 e1       	ldi	r18, 0x10	; 16
    2db2:	80 e0       	ldi	r24, 0x00	; 0
    2db4:	90 e0       	ldi	r25, 0x00	; 0
    2db6:	0c c0       	rjmp	.+24     	; 0x2dd0 <LCD_Printf+0x24a>
    2db8:	76 01       	movw	r14, r12
    2dba:	f4 e0       	ldi	r31, 0x04	; 4
    2dbc:	ef 0e       	add	r14, r31
    2dbe:	f1 1c       	adc	r15, r1
    2dc0:	f6 01       	movw	r30, r12
    2dc2:	60 81       	ld	r22, Z
    2dc4:	71 81       	ldd	r23, Z+1	; 0x01
    2dc6:	82 81       	ldd	r24, Z+2	; 0x02
    2dc8:	93 81       	ldd	r25, Z+3	; 0x03
    2dca:	2f 3f       	cpi	r18, 0xFF	; 255
    2dcc:	09 f4       	brne	.+2      	; 0x2dd0 <LCD_Printf+0x24a>
    2dce:	20 e1       	ldi	r18, 0x10	; 16
    2dd0:	42 2f       	mov	r20, r18
    2dd2:	0e 94 9e 10 	call	0x213c	; 0x213c <LCD_DisplayNumber.part.2>
    2dd6:	09 c0       	rjmp	.+18     	; 0x2dea <LCD_Printf+0x264>
    2dd8:	76 01       	movw	r14, r12
    2dda:	f2 e0       	ldi	r31, 0x02	; 2
    2ddc:	ef 0e       	add	r14, r31
    2dde:	f1 1c       	adc	r15, r1
    2de0:	f6 01       	movw	r30, r12
    2de2:	80 81       	ld	r24, Z
    2de4:	91 81       	ldd	r25, Z+1	; 0x01
    2de6:	0e 94 dc 10 	call	0x21b8	; 0x21b8 <LCD_DisplayString>
    2dea:	67 01       	movw	r12, r14
    2dec:	07 c0       	rjmp	.+14     	; 0x2dfc <LCD_Printf+0x276>
    2dee:	85 e2       	ldi	r24, 0x25	; 37
    2df0:	0e 94 72 10 	call	0x20e4	; 0x20e4 <LCD_DisplayChar>
    2df4:	03 c0       	rjmp	.+6      	; 0x2dfc <LCD_Printf+0x276>
    2df6:	0e 94 72 10 	call	0x20e4	; 0x20e4 <LCD_DisplayChar>
    2dfa:	87 01       	movw	r16, r14
    2dfc:	78 01       	movw	r14, r16
    2dfe:	ff ef       	ldi	r31, 0xFF	; 255
    2e00:	ef 1a       	sub	r14, r31
    2e02:	ff 0a       	sbc	r15, r31
    2e04:	d2 ce       	rjmp	.-604    	; 0x2baa <LCD_Printf+0x24>
    2e06:	0f 90       	pop	r0
    2e08:	0f 90       	pop	r0
    2e0a:	0f 90       	pop	r0
    2e0c:	0f 90       	pop	r0
    2e0e:	0f 90       	pop	r0
    2e10:	df 91       	pop	r29
    2e12:	cf 91       	pop	r28
    2e14:	1f 91       	pop	r17
    2e16:	0f 91       	pop	r16
    2e18:	ff 90       	pop	r15
    2e1a:	ef 90       	pop	r14
    2e1c:	df 90       	pop	r13
    2e1e:	cf 90       	pop	r12
    2e20:	08 95       	ret

00002e22 <UART_SetBaudRate>:
    2e22:	cf 92       	push	r12
    2e24:	df 92       	push	r13
    2e26:	ef 92       	push	r14
    2e28:	ff 92       	push	r15
    2e2a:	6b 01       	movw	r12, r22
    2e2c:	7c 01       	movw	r14, r24
    2e2e:	dc 01       	movw	r26, r24
    2e30:	cb 01       	movw	r24, r22
    2e32:	80 56       	subi	r24, 0x60	; 96
    2e34:	99 40       	sbci	r25, 0x09	; 9
    2e36:	a1 09       	sbc	r26, r1
    2e38:	b1 09       	sbc	r27, r1
    2e3a:	81 3a       	cpi	r24, 0xA1	; 161
    2e3c:	98 4b       	sbci	r25, 0xB8	; 184
    2e3e:	a1 40       	sbci	r26, 0x01	; 1
    2e40:	b1 05       	cpc	r27, r1
    2e42:	98 f4       	brcc	.+38     	; 0x2e6a <UART_SetBaudRate+0x48>
    2e44:	a8 ef       	ldi	r26, 0xF8	; 248
    2e46:	bf ef       	ldi	r27, 0xFF	; 255
    2e48:	a7 01       	movw	r20, r14
    2e4a:	96 01       	movw	r18, r12
    2e4c:	0e 94 d7 19 	call	0x33ae	; 0x33ae <__mulohisi3>
    2e50:	7c 5d       	subi	r23, 0xDC	; 220
    2e52:	8b 40       	sbci	r24, 0x0B	; 11
    2e54:	9f 4f       	sbci	r25, 0xFF	; 255
    2e56:	e4 e0       	ldi	r30, 0x04	; 4
    2e58:	22 0f       	add	r18, r18
    2e5a:	33 1f       	adc	r19, r19
    2e5c:	44 1f       	adc	r20, r20
    2e5e:	55 1f       	adc	r21, r21
    2e60:	ea 95       	dec	r30
    2e62:	d1 f7       	brne	.-12     	; 0x2e58 <UART_SetBaudRate+0x36>
    2e64:	0e 94 b2 19 	call	0x3364	; 0x3364 <__udivmodsi4>
    2e68:	02 c0       	rjmp	.+4      	; 0x2e6e <UART_SetBaudRate+0x4c>
    2e6a:	27 e6       	ldi	r18, 0x67	; 103
    2e6c:	30 e0       	ldi	r19, 0x00	; 0
    2e6e:	29 b9       	out	0x09, r18	; 9
    2e70:	30 bd       	out	0x20, r19	; 32
    2e72:	ff 90       	pop	r15
    2e74:	ef 90       	pop	r14
    2e76:	df 90       	pop	r13
    2e78:	cf 90       	pop	r12
    2e7a:	08 95       	ret

00002e7c <UART_Init>:
    2e7c:	28 e1       	ldi	r18, 0x18	; 24
    2e7e:	2a b9       	out	0x0a, r18	; 10
    2e80:	26 e8       	ldi	r18, 0x86	; 134
    2e82:	20 bd       	out	0x20, r18	; 32
    2e84:	1b b8       	out	0x0b, r1	; 11
    2e86:	0c 94 11 17 	jmp	0x2e22	; 0x2e22 <UART_SetBaudRate>

00002e8a <UART_RxChar>:
    2e8a:	5f 9b       	sbis	0x0b, 7	; 11
    2e8c:	fe cf       	rjmp	.-4      	; 0x2e8a <UART_RxChar>
    2e8e:	8c b1       	in	r24, 0x0c	; 12
    2e90:	08 95       	ret

00002e92 <UART_TxChar>:
    2e92:	5d 9b       	sbis	0x0b, 5	; 11
    2e94:	fe cf       	rjmp	.-4      	; 0x2e92 <UART_TxChar>
    2e96:	8c b9       	out	0x0c, r24	; 12
    2e98:	08 95       	ret

00002e9a <UART_TxNumber.part.0>:
    2e9a:	af 92       	push	r10
    2e9c:	bf 92       	push	r11
    2e9e:	cf 92       	push	r12
    2ea0:	df 92       	push	r13
    2ea2:	ef 92       	push	r14
    2ea4:	ff 92       	push	r15
    2ea6:	0f 93       	push	r16
    2ea8:	1f 93       	push	r17
    2eaa:	cf 93       	push	r28
    2eac:	df 93       	push	r29
    2eae:	1f 92       	push	r1
    2eb0:	cd b7       	in	r28, 0x3d	; 61
    2eb2:	de b7       	in	r29, 0x3e	; 62
    2eb4:	6b 01       	movw	r12, r22
    2eb6:	7c 01       	movw	r14, r24
    2eb8:	aa 24       	eor	r10, r10
    2eba:	a3 94       	inc	r10
    2ebc:	b1 2c       	mov	r11, r1
    2ebe:	44 23       	and	r20, r20
    2ec0:	f1 f0       	breq	.+60     	; 0x2efe <UART_TxNumber.part.0+0x64>
    2ec2:	0f ef       	ldi	r16, 0xFF	; 255
    2ec4:	04 0f       	add	r16, r20
    2ec6:	c5 01       	movw	r24, r10
    2ec8:	02 c0       	rjmp	.+4      	; 0x2ece <UART_TxNumber.part.0+0x34>
    2eca:	88 0f       	add	r24, r24
    2ecc:	99 1f       	adc	r25, r25
    2ece:	0a 95       	dec	r16
    2ed0:	e2 f7       	brpl	.-8      	; 0x2eca <UART_TxNumber.part.0+0x30>
    2ed2:	8c 01       	movw	r16, r24
    2ed4:	22 27       	eor	r18, r18
    2ed6:	17 fd       	sbrc	r17, 7
    2ed8:	20 95       	com	r18
    2eda:	32 2f       	mov	r19, r18
    2edc:	0c 21       	and	r16, r12
    2ede:	1d 21       	and	r17, r13
    2ee0:	2e 21       	and	r18, r14
    2ee2:	3f 21       	and	r19, r15
    2ee4:	81 e0       	ldi	r24, 0x01	; 1
    2ee6:	01 2b       	or	r16, r17
    2ee8:	02 2b       	or	r16, r18
    2eea:	03 2b       	or	r16, r19
    2eec:	09 f4       	brne	.+2      	; 0x2ef0 <UART_TxNumber.part.0+0x56>
    2eee:	80 e0       	ldi	r24, 0x00	; 0
    2ef0:	80 5d       	subi	r24, 0xD0	; 208
    2ef2:	49 83       	std	Y+1, r20	; 0x01
    2ef4:	0e 94 49 17 	call	0x2e92	; 0x2e92 <UART_TxChar>
    2ef8:	49 81       	ldd	r20, Y+1	; 0x01
    2efa:	41 50       	subi	r20, 0x01	; 1
    2efc:	e0 cf       	rjmp	.-64     	; 0x2ebe <UART_TxNumber.part.0+0x24>
    2efe:	0f 90       	pop	r0
    2f00:	df 91       	pop	r29
    2f02:	cf 91       	pop	r28
    2f04:	1f 91       	pop	r17
    2f06:	0f 91       	pop	r16
    2f08:	ff 90       	pop	r15
    2f0a:	ef 90       	pop	r14
    2f0c:	df 90       	pop	r13
    2f0e:	cf 90       	pop	r12
    2f10:	bf 90       	pop	r11
    2f12:	af 90       	pop	r10
    2f14:	08 95       	ret

00002f16 <UART_TxString>:
    2f16:	cf 93       	push	r28
    2f18:	df 93       	push	r29
    2f1a:	ec 01       	movw	r28, r24
    2f1c:	89 91       	ld	r24, Y+
    2f1e:	88 23       	and	r24, r24
    2f20:	19 f0       	breq	.+6      	; 0x2f28 <UART_TxString+0x12>
    2f22:	0e 94 49 17 	call	0x2e92	; 0x2e92 <UART_TxChar>
    2f26:	fa cf       	rjmp	.-12     	; 0x2f1c <UART_TxString+0x6>
    2f28:	df 91       	pop	r29
    2f2a:	cf 91       	pop	r28
    2f2c:	08 95       	ret

00002f2e <UART_RxString>:
    2f2e:	ff 92       	push	r15
    2f30:	0f 93       	push	r16
    2f32:	1f 93       	push	r17
    2f34:	cf 93       	push	r28
    2f36:	df 93       	push	r29
    2f38:	8c 01       	movw	r16, r24
    2f3a:	c8 ee       	ldi	r28, 0xE8	; 232
    2f3c:	d3 e0       	ldi	r29, 0x03	; 3
    2f3e:	f1 2c       	mov	r15, r1
    2f40:	0e 94 45 17 	call	0x2e8a	; 0x2e8a <UART_RxChar>
    2f44:	8d 30       	cpi	r24, 0x0D	; 13
    2f46:	29 f4       	brne	.+10     	; 0x2f52 <UART_RxString+0x24>
    2f48:	f8 01       	movw	r30, r16
    2f4a:	ef 0d       	add	r30, r15
    2f4c:	f1 1d       	adc	r31, r1
    2f4e:	10 82       	st	Z, r1
    2f50:	10 c0       	rjmp	.+32     	; 0x2f72 <UART_RxString+0x44>
    2f52:	8a 30       	cpi	r24, 0x0A	; 10
    2f54:	c9 f3       	breq	.-14     	; 0x2f48 <UART_RxString+0x1a>
    2f56:	88 30       	cpi	r24, 0x08	; 8
    2f58:	21 f4       	brne	.+8      	; 0x2f62 <UART_RxString+0x34>
    2f5a:	ff 20       	and	r15, r15
    2f5c:	11 f0       	breq	.+4      	; 0x2f62 <UART_RxString+0x34>
    2f5e:	fa 94       	dec	r15
    2f60:	05 c0       	rjmp	.+10     	; 0x2f6c <UART_RxString+0x3e>
    2f62:	f8 01       	movw	r30, r16
    2f64:	ef 0d       	add	r30, r15
    2f66:	f1 1d       	adc	r31, r1
    2f68:	80 83       	st	Z, r24
    2f6a:	f3 94       	inc	r15
    2f6c:	21 97       	sbiw	r28, 0x01	; 1
    2f6e:	20 97       	sbiw	r28, 0x00	; 0
    2f70:	39 f7       	brne	.-50     	; 0x2f40 <UART_RxString+0x12>
    2f72:	8f 2d       	mov	r24, r15
    2f74:	df 91       	pop	r29
    2f76:	cf 91       	pop	r28
    2f78:	1f 91       	pop	r17
    2f7a:	0f 91       	pop	r16
    2f7c:	ff 90       	pop	r15
    2f7e:	08 95       	ret

00002f80 <UART_TxNumber>:
    2f80:	7f 92       	push	r7
    2f82:	8f 92       	push	r8
    2f84:	9f 92       	push	r9
    2f86:	af 92       	push	r10
    2f88:	bf 92       	push	r11
    2f8a:	cf 92       	push	r12
    2f8c:	df 92       	push	r13
    2f8e:	ef 92       	push	r14
    2f90:	ff 92       	push	r15
    2f92:	0f 93       	push	r16
    2f94:	1f 93       	push	r17
    2f96:	cf 93       	push	r28
    2f98:	df 93       	push	r29
    2f9a:	cd b7       	in	r28, 0x3d	; 61
    2f9c:	de b7       	in	r29, 0x3e	; 62
    2f9e:	2a 97       	sbiw	r28, 0x0a	; 10
    2fa0:	0f b6       	in	r0, 0x3f	; 63
    2fa2:	f8 94       	cli
    2fa4:	de bf       	out	0x3e, r29	; 62
    2fa6:	0f be       	out	0x3f, r0	; 63
    2fa8:	cd bf       	out	0x3d, r28	; 61
    2faa:	78 2e       	mov	r7, r24
    2fac:	cb 01       	movw	r24, r22
    2fae:	ba 01       	movw	r22, r20
    2fb0:	c2 2e       	mov	r12, r18
    2fb2:	22 e0       	ldi	r18, 0x02	; 2
    2fb4:	72 12       	cpse	r7, r18
    2fb6:	16 c0       	rjmp	.+44     	; 0x2fe4 <UART_TxNumber+0x64>
    2fb8:	4c 2d       	mov	r20, r12
    2fba:	2a 96       	adiw	r28, 0x0a	; 10
    2fbc:	0f b6       	in	r0, 0x3f	; 63
    2fbe:	f8 94       	cli
    2fc0:	de bf       	out	0x3e, r29	; 62
    2fc2:	0f be       	out	0x3f, r0	; 63
    2fc4:	cd bf       	out	0x3d, r28	; 61
    2fc6:	df 91       	pop	r29
    2fc8:	cf 91       	pop	r28
    2fca:	1f 91       	pop	r17
    2fcc:	0f 91       	pop	r16
    2fce:	ff 90       	pop	r15
    2fd0:	ef 90       	pop	r14
    2fd2:	df 90       	pop	r13
    2fd4:	cf 90       	pop	r12
    2fd6:	bf 90       	pop	r11
    2fd8:	af 90       	pop	r10
    2fda:	9f 90       	pop	r9
    2fdc:	8f 90       	pop	r8
    2fde:	7f 90       	pop	r7
    2fe0:	0c 94 4d 17 	jmp	0x2e9a	; 0x2e9a <UART_TxNumber.part.0>
    2fe4:	61 15       	cp	r22, r1
    2fe6:	71 05       	cpc	r23, r1
    2fe8:	81 05       	cpc	r24, r1
    2fea:	91 05       	cpc	r25, r1
    2fec:	49 f0       	breq	.+18     	; 0x3000 <UART_TxNumber+0x80>
    2fee:	fe 01       	movw	r30, r28
    2ff0:	31 96       	adiw	r30, 0x01	; 1
    2ff2:	7f 01       	movw	r14, r30
    2ff4:	8f 01       	movw	r16, r30
    2ff6:	87 2c       	mov	r8, r7
    2ff8:	91 2c       	mov	r9, r1
    2ffa:	a1 2c       	mov	r10, r1
    2ffc:	b1 2c       	mov	r11, r1
    2ffe:	1d c0       	rjmp	.+58     	; 0x303a <UART_TxNumber+0xba>
    3000:	10 e0       	ldi	r17, 0x00	; 0
    3002:	1c 15       	cp	r17, r12
    3004:	a1 f1       	breq	.+104    	; 0x306e <UART_TxNumber+0xee>
    3006:	1a 30       	cpi	r17, 0x0A	; 10
    3008:	91 f1       	breq	.+100    	; 0x306e <UART_TxNumber+0xee>
    300a:	80 e3       	ldi	r24, 0x30	; 48
    300c:	0e 94 49 17 	call	0x2e92	; 0x2e92 <UART_TxChar>
    3010:	1f 5f       	subi	r17, 0xFF	; 255
    3012:	f7 cf       	rjmp	.-18     	; 0x3002 <UART_TxNumber+0x82>
    3014:	61 15       	cp	r22, r1
    3016:	71 05       	cpc	r23, r1
    3018:	81 05       	cpc	r24, r1
    301a:	91 05       	cpc	r25, r1
    301c:	99 f0       	breq	.+38     	; 0x3044 <UART_TxNumber+0xc4>
    301e:	d6 2e       	mov	r13, r22
    3020:	a5 01       	movw	r20, r10
    3022:	94 01       	movw	r18, r8
    3024:	0e 94 b2 19 	call	0x3364	; 0x3364 <__udivmodsi4>
    3028:	ca 01       	movw	r24, r20
    302a:	b9 01       	movw	r22, r18
    302c:	72 9e       	mul	r7, r18
    302e:	d0 18       	sub	r13, r0
    3030:	11 24       	eor	r1, r1
    3032:	f8 01       	movw	r30, r16
    3034:	d0 82       	st	Z, r13
    3036:	0f 5f       	subi	r16, 0xFF	; 255
    3038:	1f 4f       	sbci	r17, 0xFF	; 255
    303a:	d0 2e       	mov	r13, r16
    303c:	de 18       	sub	r13, r14
    303e:	dc 14       	cp	r13, r12
    3040:	48 f3       	brcs	.-46     	; 0x3014 <UART_TxNumber+0x94>
    3042:	10 c0       	rjmp	.+32     	; 0x3064 <UART_TxNumber+0xe4>
    3044:	fa e0       	ldi	r31, 0x0A	; 10
    3046:	fc 15       	cp	r31, r12
    3048:	68 f0       	brcs	.+26     	; 0x3064 <UART_TxNumber+0xe4>
    304a:	f8 01       	movw	r30, r16
    304c:	10 82       	st	Z, r1
    304e:	f3 cf       	rjmp	.-26     	; 0x3036 <UART_TxNumber+0xb6>
    3050:	fe 01       	movw	r30, r28
    3052:	ed 0d       	add	r30, r13
    3054:	f1 1d       	adc	r31, r1
    3056:	80 81       	ld	r24, Z
    3058:	8a 30       	cpi	r24, 0x0A	; 10
    305a:	38 f0       	brcs	.+14     	; 0x306a <UART_TxNumber+0xea>
    305c:	89 5c       	subi	r24, 0xC9	; 201
    305e:	0e 94 49 17 	call	0x2e92	; 0x2e92 <UART_TxChar>
    3062:	da 94       	dec	r13
    3064:	d1 10       	cpse	r13, r1
    3066:	f4 cf       	rjmp	.-24     	; 0x3050 <UART_TxNumber+0xd0>
    3068:	02 c0       	rjmp	.+4      	; 0x306e <UART_TxNumber+0xee>
    306a:	80 5d       	subi	r24, 0xD0	; 208
    306c:	f8 cf       	rjmp	.-16     	; 0x305e <UART_TxNumber+0xde>
    306e:	2a 96       	adiw	r28, 0x0a	; 10
    3070:	0f b6       	in	r0, 0x3f	; 63
    3072:	f8 94       	cli
    3074:	de bf       	out	0x3e, r29	; 62
    3076:	0f be       	out	0x3f, r0	; 63
    3078:	cd bf       	out	0x3d, r28	; 61
    307a:	df 91       	pop	r29
    307c:	cf 91       	pop	r28
    307e:	1f 91       	pop	r17
    3080:	0f 91       	pop	r16
    3082:	ff 90       	pop	r15
    3084:	ef 90       	pop	r14
    3086:	df 90       	pop	r13
    3088:	cf 90       	pop	r12
    308a:	bf 90       	pop	r11
    308c:	af 90       	pop	r10
    308e:	9f 90       	pop	r9
    3090:	8f 90       	pop	r8
    3092:	7f 90       	pop	r7
    3094:	08 95       	ret

00003096 <UART_TxFloatNumber>:
    3096:	8f 92       	push	r8
    3098:	9f 92       	push	r9
    309a:	af 92       	push	r10
    309c:	bf 92       	push	r11
    309e:	cf 92       	push	r12
    30a0:	df 92       	push	r13
    30a2:	ef 92       	push	r14
    30a4:	ff 92       	push	r15
    30a6:	6b 01       	movw	r12, r22
    30a8:	7c 01       	movw	r14, r24
    30aa:	0e 94 6f 1a 	call	0x34de	; 0x34de <__fixunssfsi>
    30ae:	4b 01       	movw	r8, r22
    30b0:	5c 01       	movw	r10, r24
    30b2:	2f ef       	ldi	r18, 0xFF	; 255
    30b4:	ab 01       	movw	r20, r22
    30b6:	bc 01       	movw	r22, r24
    30b8:	8a e0       	ldi	r24, 0x0A	; 10
    30ba:	0e 94 c0 17 	call	0x2f80	; 0x2f80 <UART_TxNumber>
    30be:	8e e2       	ldi	r24, 0x2E	; 46
    30c0:	0e 94 49 17 	call	0x2e92	; 0x2e92 <UART_TxChar>
    30c4:	c5 01       	movw	r24, r10
    30c6:	b4 01       	movw	r22, r8
    30c8:	0e 94 9b 1a 	call	0x3536	; 0x3536 <__floatunsisf>
    30cc:	9b 01       	movw	r18, r22
    30ce:	ac 01       	movw	r20, r24
    30d0:	c7 01       	movw	r24, r14
    30d2:	b6 01       	movw	r22, r12
    30d4:	0e 94 0a 1a 	call	0x3414	; 0x3414 <__subsf3>
    30d8:	20 e0       	ldi	r18, 0x00	; 0
    30da:	34 e2       	ldi	r19, 0x24	; 36
    30dc:	44 e7       	ldi	r20, 0x74	; 116
    30de:	59 e4       	ldi	r21, 0x49	; 73
    30e0:	0e 94 29 1b 	call	0x3652	; 0x3652 <__mulsf3>
    30e4:	0e 94 6f 1a 	call	0x34de	; 0x34de <__fixunssfsi>
    30e8:	ab 01       	movw	r20, r22
    30ea:	bc 01       	movw	r22, r24
    30ec:	2f ef       	ldi	r18, 0xFF	; 255
    30ee:	8a e0       	ldi	r24, 0x0A	; 10
    30f0:	ff 90       	pop	r15
    30f2:	ef 90       	pop	r14
    30f4:	df 90       	pop	r13
    30f6:	cf 90       	pop	r12
    30f8:	bf 90       	pop	r11
    30fa:	af 90       	pop	r10
    30fc:	9f 90       	pop	r9
    30fe:	8f 90       	pop	r8
    3100:	0c 94 c0 17 	jmp	0x2f80	; 0x2f80 <UART_TxNumber>

00003104 <UART_Printf>:
    3104:	cf 92       	push	r12
    3106:	df 92       	push	r13
    3108:	ef 92       	push	r14
    310a:	ff 92       	push	r15
    310c:	0f 93       	push	r16
    310e:	1f 93       	push	r17
    3110:	cf 93       	push	r28
    3112:	df 93       	push	r29
    3114:	00 d0       	rcall	.+0      	; 0x3116 <UART_Printf+0x12>
    3116:	00 d0       	rcall	.+0      	; 0x3118 <UART_Printf+0x14>
    3118:	1f 92       	push	r1
    311a:	cd b7       	in	r28, 0x3d	; 61
    311c:	de b7       	in	r29, 0x3e	; 62
    311e:	fe 01       	movw	r30, r28
    3120:	70 96       	adiw	r30, 0x10	; 16
    3122:	e1 90       	ld	r14, Z+
    3124:	f1 90       	ld	r15, Z+
    3126:	6f 01       	movw	r12, r30
    3128:	f7 01       	movw	r30, r14
    312a:	80 81       	ld	r24, Z
    312c:	88 23       	and	r24, r24
    312e:	09 f4       	brne	.+2      	; 0x3132 <UART_Printf+0x2e>
    3130:	f7 c0       	rjmp	.+494    	; 0x3320 <UART_Printf+0x21c>
    3132:	85 32       	cpi	r24, 0x25	; 37
    3134:	09 f0       	breq	.+2      	; 0x3138 <UART_Printf+0x34>
    3136:	ec c0       	rjmp	.+472    	; 0x3310 <UART_Printf+0x20c>
    3138:	87 01       	movw	r16, r14
    313a:	0f 5f       	subi	r16, 0xFF	; 255
    313c:	1f 4f       	sbci	r17, 0xFF	; 255
    313e:	f7 01       	movw	r30, r14
    3140:	81 81       	ldd	r24, Z+1	; 0x01
    3142:	90 ed       	ldi	r25, 0xD0	; 208
    3144:	98 0f       	add	r25, r24
    3146:	9a 30       	cpi	r25, 0x0A	; 10
    3148:	78 f4       	brcc	.+30     	; 0x3168 <UART_Printf+0x64>
    314a:	20 e0       	ldi	r18, 0x00	; 0
    314c:	90 ed       	ldi	r25, 0xD0	; 208
    314e:	98 0f       	add	r25, r24
    3150:	9a 30       	cpi	r25, 0x0A	; 10
    3152:	58 f4       	brcc	.+22     	; 0x316a <UART_Printf+0x66>
    3154:	fa e0       	ldi	r31, 0x0A	; 10
    3156:	2f 9f       	mul	r18, r31
    3158:	90 0d       	add	r25, r0
    315a:	11 24       	eor	r1, r1
    315c:	29 2f       	mov	r18, r25
    315e:	0f 5f       	subi	r16, 0xFF	; 255
    3160:	1f 4f       	sbci	r17, 0xFF	; 255
    3162:	f8 01       	movw	r30, r16
    3164:	80 81       	ld	r24, Z
    3166:	f2 cf       	rjmp	.-28     	; 0x314c <UART_Printf+0x48>
    3168:	2f ef       	ldi	r18, 0xFF	; 255
    316a:	88 35       	cpi	r24, 0x58	; 88
    316c:	09 f4       	brne	.+2      	; 0x3170 <UART_Printf+0x6c>
    316e:	8f c0       	rjmp	.+286    	; 0x328e <UART_Printf+0x18a>
    3170:	c8 f4       	brcc	.+50     	; 0x31a4 <UART_Printf+0xa0>
    3172:	84 34       	cpi	r24, 0x44	; 68
    3174:	09 f4       	brne	.+2      	; 0x3178 <UART_Printf+0x74>
    3176:	4c c0       	rjmp	.+152    	; 0x3210 <UART_Printf+0x10c>
    3178:	58 f4       	brcc	.+22     	; 0x3190 <UART_Printf+0x8c>
    317a:	82 34       	cpi	r24, 0x42	; 66
    317c:	09 f4       	brne	.+2      	; 0x3180 <UART_Printf+0x7c>
    317e:	a1 c0       	rjmp	.+322    	; 0x32c2 <UART_Printf+0x1be>
    3180:	38 f5       	brcc	.+78     	; 0x31d0 <UART_Printf+0xcc>
    3182:	85 32       	cpi	r24, 0x25	; 37
    3184:	09 f0       	breq	.+2      	; 0x3188 <UART_Printf+0x84>
    3186:	c7 c0       	rjmp	.+398    	; 0x3316 <UART_Printf+0x212>
    3188:	85 e2       	ldi	r24, 0x25	; 37
    318a:	0e 94 49 17 	call	0x2e92	; 0x2e92 <UART_TxChar>
    318e:	c3 c0       	rjmp	.+390    	; 0x3316 <UART_Printf+0x212>
    3190:	83 35       	cpi	r24, 0x53	; 83
    3192:	09 f4       	brne	.+2      	; 0x3196 <UART_Printf+0x92>
    3194:	b2 c0       	rjmp	.+356    	; 0x32fa <UART_Printf+0x1f6>
    3196:	85 35       	cpi	r24, 0x55	; 85
    3198:	09 f4       	brne	.+2      	; 0x319c <UART_Printf+0x98>
    319a:	64 c0       	rjmp	.+200    	; 0x3264 <UART_Printf+0x160>
    319c:	86 34       	cpi	r24, 0x46	; 70
    319e:	09 f0       	breq	.+2      	; 0x31a2 <UART_Printf+0x9e>
    31a0:	ba c0       	rjmp	.+372    	; 0x3316 <UART_Printf+0x212>
    31a2:	9f c0       	rjmp	.+318    	; 0x32e2 <UART_Printf+0x1de>
    31a4:	86 36       	cpi	r24, 0x66	; 102
    31a6:	09 f4       	brne	.+2      	; 0x31aa <UART_Printf+0xa6>
    31a8:	9c c0       	rjmp	.+312    	; 0x32e2 <UART_Printf+0x1de>
    31aa:	40 f4       	brcc	.+16     	; 0x31bc <UART_Printf+0xb8>
    31ac:	83 36       	cpi	r24, 0x63	; 99
    31ae:	81 f0       	breq	.+32     	; 0x31d0 <UART_Printf+0xcc>
    31b0:	84 36       	cpi	r24, 0x64	; 100
    31b2:	b9 f0       	breq	.+46     	; 0x31e2 <UART_Printf+0xde>
    31b4:	82 36       	cpi	r24, 0x62	; 98
    31b6:	09 f0       	breq	.+2      	; 0x31ba <UART_Printf+0xb6>
    31b8:	ae c0       	rjmp	.+348    	; 0x3316 <UART_Printf+0x212>
    31ba:	76 c0       	rjmp	.+236    	; 0x32a8 <UART_Printf+0x1a4>
    31bc:	85 37       	cpi	r24, 0x75	; 117
    31be:	09 f4       	brne	.+2      	; 0x31c2 <UART_Printf+0xbe>
    31c0:	47 c0       	rjmp	.+142    	; 0x3250 <UART_Printf+0x14c>
    31c2:	88 37       	cpi	r24, 0x78	; 120
    31c4:	09 f4       	brne	.+2      	; 0x31c8 <UART_Printf+0xc4>
    31c6:	59 c0       	rjmp	.+178    	; 0x327a <UART_Printf+0x176>
    31c8:	83 37       	cpi	r24, 0x73	; 115
    31ca:	09 f0       	breq	.+2      	; 0x31ce <UART_Printf+0xca>
    31cc:	a4 c0       	rjmp	.+328    	; 0x3316 <UART_Printf+0x212>
    31ce:	95 c0       	rjmp	.+298    	; 0x32fa <UART_Printf+0x1f6>
    31d0:	76 01       	movw	r14, r12
    31d2:	f2 e0       	ldi	r31, 0x02	; 2
    31d4:	ef 0e       	add	r14, r31
    31d6:	f1 1c       	adc	r15, r1
    31d8:	f6 01       	movw	r30, r12
    31da:	80 81       	ld	r24, Z
    31dc:	0e 94 49 17 	call	0x2e92	; 0x2e92 <UART_TxChar>
    31e0:	95 c0       	rjmp	.+298    	; 0x330c <UART_Printf+0x208>
    31e2:	76 01       	movw	r14, r12
    31e4:	f2 e0       	ldi	r31, 0x02	; 2
    31e6:	ef 0e       	add	r14, r31
    31e8:	f1 1c       	adc	r15, r1
    31ea:	f6 01       	movw	r30, r12
    31ec:	c0 80       	ld	r12, Z
    31ee:	d1 80       	ldd	r13, Z+1	; 0x01
    31f0:	d7 fe       	sbrs	r13, 7
    31f2:	08 c0       	rjmp	.+16     	; 0x3204 <UART_Printf+0x100>
    31f4:	d1 94       	neg	r13
    31f6:	c1 94       	neg	r12
    31f8:	d1 08       	sbc	r13, r1
    31fa:	8d e2       	ldi	r24, 0x2D	; 45
    31fc:	2d 83       	std	Y+5, r18	; 0x05
    31fe:	0e 94 49 17 	call	0x2e92	; 0x2e92 <UART_TxChar>
    3202:	2d 81       	ldd	r18, Y+5	; 0x05
    3204:	a6 01       	movw	r20, r12
    3206:	66 27       	eor	r22, r22
    3208:	57 fd       	sbrc	r21, 7
    320a:	60 95       	com	r22
    320c:	76 2f       	mov	r23, r22
    320e:	33 c0       	rjmp	.+102    	; 0x3276 <UART_Printf+0x172>
    3210:	76 01       	movw	r14, r12
    3212:	f4 e0       	ldi	r31, 0x04	; 4
    3214:	ef 0e       	add	r14, r31
    3216:	f1 1c       	adc	r15, r1
    3218:	f6 01       	movw	r30, r12
    321a:	40 81       	ld	r20, Z
    321c:	51 81       	ldd	r21, Z+1	; 0x01
    321e:	62 81       	ldd	r22, Z+2	; 0x02
    3220:	73 81       	ldd	r23, Z+3	; 0x03
    3222:	77 ff       	sbrs	r23, 7
    3224:	28 c0       	rjmp	.+80     	; 0x3276 <UART_Printf+0x172>
    3226:	70 95       	com	r23
    3228:	60 95       	com	r22
    322a:	50 95       	com	r21
    322c:	41 95       	neg	r20
    322e:	5f 4f       	sbci	r21, 0xFF	; 255
    3230:	6f 4f       	sbci	r22, 0xFF	; 255
    3232:	7f 4f       	sbci	r23, 0xFF	; 255
    3234:	8d e2       	ldi	r24, 0x2D	; 45
    3236:	2d 83       	std	Y+5, r18	; 0x05
    3238:	49 83       	std	Y+1, r20	; 0x01
    323a:	5a 83       	std	Y+2, r21	; 0x02
    323c:	6b 83       	std	Y+3, r22	; 0x03
    323e:	7c 83       	std	Y+4, r23	; 0x04
    3240:	0e 94 49 17 	call	0x2e92	; 0x2e92 <UART_TxChar>
    3244:	7c 81       	ldd	r23, Y+4	; 0x04
    3246:	6b 81       	ldd	r22, Y+3	; 0x03
    3248:	5a 81       	ldd	r21, Y+2	; 0x02
    324a:	49 81       	ldd	r20, Y+1	; 0x01
    324c:	2d 81       	ldd	r18, Y+5	; 0x05
    324e:	13 c0       	rjmp	.+38     	; 0x3276 <UART_Printf+0x172>
    3250:	76 01       	movw	r14, r12
    3252:	f2 e0       	ldi	r31, 0x02	; 2
    3254:	ef 0e       	add	r14, r31
    3256:	f1 1c       	adc	r15, r1
    3258:	f6 01       	movw	r30, r12
    325a:	40 81       	ld	r20, Z
    325c:	51 81       	ldd	r21, Z+1	; 0x01
    325e:	60 e0       	ldi	r22, 0x00	; 0
    3260:	70 e0       	ldi	r23, 0x00	; 0
    3262:	09 c0       	rjmp	.+18     	; 0x3276 <UART_Printf+0x172>
    3264:	76 01       	movw	r14, r12
    3266:	f4 e0       	ldi	r31, 0x04	; 4
    3268:	ef 0e       	add	r14, r31
    326a:	f1 1c       	adc	r15, r1
    326c:	f6 01       	movw	r30, r12
    326e:	40 81       	ld	r20, Z
    3270:	51 81       	ldd	r21, Z+1	; 0x01
    3272:	62 81       	ldd	r22, Z+2	; 0x02
    3274:	73 81       	ldd	r23, Z+3	; 0x03
    3276:	8a e0       	ldi	r24, 0x0A	; 10
    3278:	14 c0       	rjmp	.+40     	; 0x32a2 <UART_Printf+0x19e>
    327a:	76 01       	movw	r14, r12
    327c:	f2 e0       	ldi	r31, 0x02	; 2
    327e:	ef 0e       	add	r14, r31
    3280:	f1 1c       	adc	r15, r1
    3282:	f6 01       	movw	r30, r12
    3284:	40 81       	ld	r20, Z
    3286:	51 81       	ldd	r21, Z+1	; 0x01
    3288:	60 e0       	ldi	r22, 0x00	; 0
    328a:	70 e0       	ldi	r23, 0x00	; 0
    328c:	09 c0       	rjmp	.+18     	; 0x32a0 <UART_Printf+0x19c>
    328e:	76 01       	movw	r14, r12
    3290:	f4 e0       	ldi	r31, 0x04	; 4
    3292:	ef 0e       	add	r14, r31
    3294:	f1 1c       	adc	r15, r1
    3296:	f6 01       	movw	r30, r12
    3298:	40 81       	ld	r20, Z
    329a:	51 81       	ldd	r21, Z+1	; 0x01
    329c:	62 81       	ldd	r22, Z+2	; 0x02
    329e:	73 81       	ldd	r23, Z+3	; 0x03
    32a0:	80 e1       	ldi	r24, 0x10	; 16
    32a2:	0e 94 c0 17 	call	0x2f80	; 0x2f80 <UART_TxNumber>
    32a6:	32 c0       	rjmp	.+100    	; 0x330c <UART_Printf+0x208>
    32a8:	76 01       	movw	r14, r12
    32aa:	f2 e0       	ldi	r31, 0x02	; 2
    32ac:	ef 0e       	add	r14, r31
    32ae:	f1 1c       	adc	r15, r1
    32b0:	f6 01       	movw	r30, r12
    32b2:	60 81       	ld	r22, Z
    32b4:	71 81       	ldd	r23, Z+1	; 0x01
    32b6:	2f 3f       	cpi	r18, 0xFF	; 255
    32b8:	09 f4       	brne	.+2      	; 0x32bc <UART_Printf+0x1b8>
    32ba:	20 e1       	ldi	r18, 0x10	; 16
    32bc:	80 e0       	ldi	r24, 0x00	; 0
    32be:	90 e0       	ldi	r25, 0x00	; 0
    32c0:	0c c0       	rjmp	.+24     	; 0x32da <UART_Printf+0x1d6>
    32c2:	76 01       	movw	r14, r12
    32c4:	f4 e0       	ldi	r31, 0x04	; 4
    32c6:	ef 0e       	add	r14, r31
    32c8:	f1 1c       	adc	r15, r1
    32ca:	f6 01       	movw	r30, r12
    32cc:	60 81       	ld	r22, Z
    32ce:	71 81       	ldd	r23, Z+1	; 0x01
    32d0:	82 81       	ldd	r24, Z+2	; 0x02
    32d2:	93 81       	ldd	r25, Z+3	; 0x03
    32d4:	2f 3f       	cpi	r18, 0xFF	; 255
    32d6:	09 f4       	brne	.+2      	; 0x32da <UART_Printf+0x1d6>
    32d8:	20 e2       	ldi	r18, 0x20	; 32
    32da:	42 2f       	mov	r20, r18
    32dc:	0e 94 4d 17 	call	0x2e9a	; 0x2e9a <UART_TxNumber.part.0>
    32e0:	15 c0       	rjmp	.+42     	; 0x330c <UART_Printf+0x208>
    32e2:	76 01       	movw	r14, r12
    32e4:	f4 e0       	ldi	r31, 0x04	; 4
    32e6:	ef 0e       	add	r14, r31
    32e8:	f1 1c       	adc	r15, r1
    32ea:	f6 01       	movw	r30, r12
    32ec:	60 81       	ld	r22, Z
    32ee:	71 81       	ldd	r23, Z+1	; 0x01
    32f0:	82 81       	ldd	r24, Z+2	; 0x02
    32f2:	93 81       	ldd	r25, Z+3	; 0x03
    32f4:	0e 94 4b 18 	call	0x3096	; 0x3096 <UART_TxFloatNumber>
    32f8:	09 c0       	rjmp	.+18     	; 0x330c <UART_Printf+0x208>
    32fa:	76 01       	movw	r14, r12
    32fc:	f2 e0       	ldi	r31, 0x02	; 2
    32fe:	ef 0e       	add	r14, r31
    3300:	f1 1c       	adc	r15, r1
    3302:	f6 01       	movw	r30, r12
    3304:	80 81       	ld	r24, Z
    3306:	91 81       	ldd	r25, Z+1	; 0x01
    3308:	0e 94 8b 17 	call	0x2f16	; 0x2f16 <UART_TxString>
    330c:	67 01       	movw	r12, r14
    330e:	03 c0       	rjmp	.+6      	; 0x3316 <UART_Printf+0x212>
    3310:	0e 94 49 17 	call	0x2e92	; 0x2e92 <UART_TxChar>
    3314:	87 01       	movw	r16, r14
    3316:	78 01       	movw	r14, r16
    3318:	ff ef       	ldi	r31, 0xFF	; 255
    331a:	ef 1a       	sub	r14, r31
    331c:	ff 0a       	sbc	r15, r31
    331e:	04 cf       	rjmp	.-504    	; 0x3128 <UART_Printf+0x24>
    3320:	0f 90       	pop	r0
    3322:	0f 90       	pop	r0
    3324:	0f 90       	pop	r0
    3326:	0f 90       	pop	r0
    3328:	0f 90       	pop	r0
    332a:	df 91       	pop	r29
    332c:	cf 91       	pop	r28
    332e:	1f 91       	pop	r17
    3330:	0f 91       	pop	r16
    3332:	ff 90       	pop	r15
    3334:	ef 90       	pop	r14
    3336:	df 90       	pop	r13
    3338:	cf 90       	pop	r12
    333a:	08 95       	ret

0000333c <__divmodhi4>:
    333c:	97 fb       	bst	r25, 7
    333e:	07 2e       	mov	r0, r23
    3340:	16 f4       	brtc	.+4      	; 0x3346 <__divmodhi4+0xa>
    3342:	00 94       	com	r0
    3344:	07 d0       	rcall	.+14     	; 0x3354 <__divmodhi4_neg1>
    3346:	77 fd       	sbrc	r23, 7
    3348:	09 d0       	rcall	.+18     	; 0x335c <__divmodhi4_neg2>
    334a:	0e 94 dc 19 	call	0x33b8	; 0x33b8 <__udivmodhi4>
    334e:	07 fc       	sbrc	r0, 7
    3350:	05 d0       	rcall	.+10     	; 0x335c <__divmodhi4_neg2>
    3352:	3e f4       	brtc	.+14     	; 0x3362 <__divmodhi4_exit>

00003354 <__divmodhi4_neg1>:
    3354:	90 95       	com	r25
    3356:	81 95       	neg	r24
    3358:	9f 4f       	sbci	r25, 0xFF	; 255
    335a:	08 95       	ret

0000335c <__divmodhi4_neg2>:
    335c:	70 95       	com	r23
    335e:	61 95       	neg	r22
    3360:	7f 4f       	sbci	r23, 0xFF	; 255

00003362 <__divmodhi4_exit>:
    3362:	08 95       	ret

00003364 <__udivmodsi4>:
    3364:	a1 e2       	ldi	r26, 0x21	; 33
    3366:	1a 2e       	mov	r1, r26
    3368:	aa 1b       	sub	r26, r26
    336a:	bb 1b       	sub	r27, r27
    336c:	fd 01       	movw	r30, r26
    336e:	0d c0       	rjmp	.+26     	; 0x338a <__udivmodsi4_ep>

00003370 <__udivmodsi4_loop>:
    3370:	aa 1f       	adc	r26, r26
    3372:	bb 1f       	adc	r27, r27
    3374:	ee 1f       	adc	r30, r30
    3376:	ff 1f       	adc	r31, r31
    3378:	a2 17       	cp	r26, r18
    337a:	b3 07       	cpc	r27, r19
    337c:	e4 07       	cpc	r30, r20
    337e:	f5 07       	cpc	r31, r21
    3380:	20 f0       	brcs	.+8      	; 0x338a <__udivmodsi4_ep>
    3382:	a2 1b       	sub	r26, r18
    3384:	b3 0b       	sbc	r27, r19
    3386:	e4 0b       	sbc	r30, r20
    3388:	f5 0b       	sbc	r31, r21

0000338a <__udivmodsi4_ep>:
    338a:	66 1f       	adc	r22, r22
    338c:	77 1f       	adc	r23, r23
    338e:	88 1f       	adc	r24, r24
    3390:	99 1f       	adc	r25, r25
    3392:	1a 94       	dec	r1
    3394:	69 f7       	brne	.-38     	; 0x3370 <__udivmodsi4_loop>
    3396:	60 95       	com	r22
    3398:	70 95       	com	r23
    339a:	80 95       	com	r24
    339c:	90 95       	com	r25
    339e:	9b 01       	movw	r18, r22
    33a0:	ac 01       	movw	r20, r24
    33a2:	bd 01       	movw	r22, r26
    33a4:	cf 01       	movw	r24, r30
    33a6:	08 95       	ret

000033a8 <__mulshisi3>:
    33a8:	b7 ff       	sbrs	r27, 7
    33aa:	0c 94 f0 19 	jmp	0x33e0	; 0x33e0 <__muluhisi3>

000033ae <__mulohisi3>:
    33ae:	0e 94 f0 19 	call	0x33e0	; 0x33e0 <__muluhisi3>
    33b2:	82 1b       	sub	r24, r18
    33b4:	93 0b       	sbc	r25, r19
    33b6:	08 95       	ret

000033b8 <__udivmodhi4>:
    33b8:	aa 1b       	sub	r26, r26
    33ba:	bb 1b       	sub	r27, r27
    33bc:	51 e1       	ldi	r21, 0x11	; 17
    33be:	07 c0       	rjmp	.+14     	; 0x33ce <__udivmodhi4_ep>

000033c0 <__udivmodhi4_loop>:
    33c0:	aa 1f       	adc	r26, r26
    33c2:	bb 1f       	adc	r27, r27
    33c4:	a6 17       	cp	r26, r22
    33c6:	b7 07       	cpc	r27, r23
    33c8:	10 f0       	brcs	.+4      	; 0x33ce <__udivmodhi4_ep>
    33ca:	a6 1b       	sub	r26, r22
    33cc:	b7 0b       	sbc	r27, r23

000033ce <__udivmodhi4_ep>:
    33ce:	88 1f       	adc	r24, r24
    33d0:	99 1f       	adc	r25, r25
    33d2:	5a 95       	dec	r21
    33d4:	a9 f7       	brne	.-22     	; 0x33c0 <__udivmodhi4_loop>
    33d6:	80 95       	com	r24
    33d8:	90 95       	com	r25
    33da:	bc 01       	movw	r22, r24
    33dc:	cd 01       	movw	r24, r26
    33de:	08 95       	ret

000033e0 <__muluhisi3>:
    33e0:	0e 94 fb 19 	call	0x33f6	; 0x33f6 <__umulhisi3>
    33e4:	a5 9f       	mul	r26, r21
    33e6:	90 0d       	add	r25, r0
    33e8:	b4 9f       	mul	r27, r20
    33ea:	90 0d       	add	r25, r0
    33ec:	a4 9f       	mul	r26, r20
    33ee:	80 0d       	add	r24, r0
    33f0:	91 1d       	adc	r25, r1
    33f2:	11 24       	eor	r1, r1
    33f4:	08 95       	ret

000033f6 <__umulhisi3>:
    33f6:	a2 9f       	mul	r26, r18
    33f8:	b0 01       	movw	r22, r0
    33fa:	b3 9f       	mul	r27, r19
    33fc:	c0 01       	movw	r24, r0
    33fe:	a3 9f       	mul	r26, r19
    3400:	70 0d       	add	r23, r0
    3402:	81 1d       	adc	r24, r1
    3404:	11 24       	eor	r1, r1
    3406:	91 1d       	adc	r25, r1
    3408:	b2 9f       	mul	r27, r18
    340a:	70 0d       	add	r23, r0
    340c:	81 1d       	adc	r24, r1
    340e:	11 24       	eor	r1, r1
    3410:	91 1d       	adc	r25, r1
    3412:	08 95       	ret

00003414 <__subsf3>:
    3414:	50 58       	subi	r21, 0x80	; 128

00003416 <__addsf3>:
    3416:	bb 27       	eor	r27, r27
    3418:	aa 27       	eor	r26, r26
    341a:	0e d0       	rcall	.+28     	; 0x3438 <__addsf3x>
    341c:	e0 c0       	rjmp	.+448    	; 0x35de <__fp_round>
    341e:	d1 d0       	rcall	.+418    	; 0x35c2 <__fp_pscA>
    3420:	30 f0       	brcs	.+12     	; 0x342e <__addsf3+0x18>
    3422:	d6 d0       	rcall	.+428    	; 0x35d0 <__fp_pscB>
    3424:	20 f0       	brcs	.+8      	; 0x342e <__addsf3+0x18>
    3426:	31 f4       	brne	.+12     	; 0x3434 <__addsf3+0x1e>
    3428:	9f 3f       	cpi	r25, 0xFF	; 255
    342a:	11 f4       	brne	.+4      	; 0x3430 <__addsf3+0x1a>
    342c:	1e f4       	brtc	.+6      	; 0x3434 <__addsf3+0x1e>
    342e:	c6 c0       	rjmp	.+396    	; 0x35bc <__fp_nan>
    3430:	0e f4       	brtc	.+2      	; 0x3434 <__addsf3+0x1e>
    3432:	e0 95       	com	r30
    3434:	e7 fb       	bst	r30, 7
    3436:	bc c0       	rjmp	.+376    	; 0x35b0 <__fp_inf>

00003438 <__addsf3x>:
    3438:	e9 2f       	mov	r30, r25
    343a:	e2 d0       	rcall	.+452    	; 0x3600 <__fp_split3>
    343c:	80 f3       	brcs	.-32     	; 0x341e <__addsf3+0x8>
    343e:	ba 17       	cp	r27, r26
    3440:	62 07       	cpc	r22, r18
    3442:	73 07       	cpc	r23, r19
    3444:	84 07       	cpc	r24, r20
    3446:	95 07       	cpc	r25, r21
    3448:	18 f0       	brcs	.+6      	; 0x3450 <__addsf3x+0x18>
    344a:	71 f4       	brne	.+28     	; 0x3468 <__addsf3x+0x30>
    344c:	9e f5       	brtc	.+102    	; 0x34b4 <__addsf3x+0x7c>
    344e:	fa c0       	rjmp	.+500    	; 0x3644 <__fp_zero>
    3450:	0e f4       	brtc	.+2      	; 0x3454 <__addsf3x+0x1c>
    3452:	e0 95       	com	r30
    3454:	0b 2e       	mov	r0, r27
    3456:	ba 2f       	mov	r27, r26
    3458:	a0 2d       	mov	r26, r0
    345a:	0b 01       	movw	r0, r22
    345c:	b9 01       	movw	r22, r18
    345e:	90 01       	movw	r18, r0
    3460:	0c 01       	movw	r0, r24
    3462:	ca 01       	movw	r24, r20
    3464:	a0 01       	movw	r20, r0
    3466:	11 24       	eor	r1, r1
    3468:	ff 27       	eor	r31, r31
    346a:	59 1b       	sub	r21, r25
    346c:	99 f0       	breq	.+38     	; 0x3494 <__addsf3x+0x5c>
    346e:	59 3f       	cpi	r21, 0xF9	; 249
    3470:	50 f4       	brcc	.+20     	; 0x3486 <__addsf3x+0x4e>
    3472:	50 3e       	cpi	r21, 0xE0	; 224
    3474:	68 f1       	brcs	.+90     	; 0x34d0 <__addsf3x+0x98>
    3476:	1a 16       	cp	r1, r26
    3478:	f0 40       	sbci	r31, 0x00	; 0
    347a:	a2 2f       	mov	r26, r18
    347c:	23 2f       	mov	r18, r19
    347e:	34 2f       	mov	r19, r20
    3480:	44 27       	eor	r20, r20
    3482:	58 5f       	subi	r21, 0xF8	; 248
    3484:	f3 cf       	rjmp	.-26     	; 0x346c <__addsf3x+0x34>
    3486:	46 95       	lsr	r20
    3488:	37 95       	ror	r19
    348a:	27 95       	ror	r18
    348c:	a7 95       	ror	r26
    348e:	f0 40       	sbci	r31, 0x00	; 0
    3490:	53 95       	inc	r21
    3492:	c9 f7       	brne	.-14     	; 0x3486 <__addsf3x+0x4e>
    3494:	7e f4       	brtc	.+30     	; 0x34b4 <__addsf3x+0x7c>
    3496:	1f 16       	cp	r1, r31
    3498:	ba 0b       	sbc	r27, r26
    349a:	62 0b       	sbc	r22, r18
    349c:	73 0b       	sbc	r23, r19
    349e:	84 0b       	sbc	r24, r20
    34a0:	ba f0       	brmi	.+46     	; 0x34d0 <__addsf3x+0x98>
    34a2:	91 50       	subi	r25, 0x01	; 1
    34a4:	a1 f0       	breq	.+40     	; 0x34ce <__addsf3x+0x96>
    34a6:	ff 0f       	add	r31, r31
    34a8:	bb 1f       	adc	r27, r27
    34aa:	66 1f       	adc	r22, r22
    34ac:	77 1f       	adc	r23, r23
    34ae:	88 1f       	adc	r24, r24
    34b0:	c2 f7       	brpl	.-16     	; 0x34a2 <__addsf3x+0x6a>
    34b2:	0e c0       	rjmp	.+28     	; 0x34d0 <__addsf3x+0x98>
    34b4:	ba 0f       	add	r27, r26
    34b6:	62 1f       	adc	r22, r18
    34b8:	73 1f       	adc	r23, r19
    34ba:	84 1f       	adc	r24, r20
    34bc:	48 f4       	brcc	.+18     	; 0x34d0 <__addsf3x+0x98>
    34be:	87 95       	ror	r24
    34c0:	77 95       	ror	r23
    34c2:	67 95       	ror	r22
    34c4:	b7 95       	ror	r27
    34c6:	f7 95       	ror	r31
    34c8:	9e 3f       	cpi	r25, 0xFE	; 254
    34ca:	08 f0       	brcs	.+2      	; 0x34ce <__addsf3x+0x96>
    34cc:	b3 cf       	rjmp	.-154    	; 0x3434 <__addsf3+0x1e>
    34ce:	93 95       	inc	r25
    34d0:	88 0f       	add	r24, r24
    34d2:	08 f0       	brcs	.+2      	; 0x34d6 <__addsf3x+0x9e>
    34d4:	99 27       	eor	r25, r25
    34d6:	ee 0f       	add	r30, r30
    34d8:	97 95       	ror	r25
    34da:	87 95       	ror	r24
    34dc:	08 95       	ret

000034de <__fixunssfsi>:
    34de:	98 d0       	rcall	.+304    	; 0x3610 <__fp_splitA>
    34e0:	88 f0       	brcs	.+34     	; 0x3504 <__fixunssfsi+0x26>
    34e2:	9f 57       	subi	r25, 0x7F	; 127
    34e4:	90 f0       	brcs	.+36     	; 0x350a <__fixunssfsi+0x2c>
    34e6:	b9 2f       	mov	r27, r25
    34e8:	99 27       	eor	r25, r25
    34ea:	b7 51       	subi	r27, 0x17	; 23
    34ec:	a0 f0       	brcs	.+40     	; 0x3516 <__fixunssfsi+0x38>
    34ee:	d1 f0       	breq	.+52     	; 0x3524 <__fixunssfsi+0x46>
    34f0:	66 0f       	add	r22, r22
    34f2:	77 1f       	adc	r23, r23
    34f4:	88 1f       	adc	r24, r24
    34f6:	99 1f       	adc	r25, r25
    34f8:	1a f0       	brmi	.+6      	; 0x3500 <__fixunssfsi+0x22>
    34fa:	ba 95       	dec	r27
    34fc:	c9 f7       	brne	.-14     	; 0x34f0 <__fixunssfsi+0x12>
    34fe:	12 c0       	rjmp	.+36     	; 0x3524 <__fixunssfsi+0x46>
    3500:	b1 30       	cpi	r27, 0x01	; 1
    3502:	81 f0       	breq	.+32     	; 0x3524 <__fixunssfsi+0x46>
    3504:	9f d0       	rcall	.+318    	; 0x3644 <__fp_zero>
    3506:	b1 e0       	ldi	r27, 0x01	; 1
    3508:	08 95       	ret
    350a:	9c c0       	rjmp	.+312    	; 0x3644 <__fp_zero>
    350c:	67 2f       	mov	r22, r23
    350e:	78 2f       	mov	r23, r24
    3510:	88 27       	eor	r24, r24
    3512:	b8 5f       	subi	r27, 0xF8	; 248
    3514:	39 f0       	breq	.+14     	; 0x3524 <__fixunssfsi+0x46>
    3516:	b9 3f       	cpi	r27, 0xF9	; 249
    3518:	cc f3       	brlt	.-14     	; 0x350c <__fixunssfsi+0x2e>
    351a:	86 95       	lsr	r24
    351c:	77 95       	ror	r23
    351e:	67 95       	ror	r22
    3520:	b3 95       	inc	r27
    3522:	d9 f7       	brne	.-10     	; 0x351a <__fixunssfsi+0x3c>
    3524:	3e f4       	brtc	.+14     	; 0x3534 <__fixunssfsi+0x56>
    3526:	90 95       	com	r25
    3528:	80 95       	com	r24
    352a:	70 95       	com	r23
    352c:	61 95       	neg	r22
    352e:	7f 4f       	sbci	r23, 0xFF	; 255
    3530:	8f 4f       	sbci	r24, 0xFF	; 255
    3532:	9f 4f       	sbci	r25, 0xFF	; 255
    3534:	08 95       	ret

00003536 <__floatunsisf>:
    3536:	e8 94       	clt
    3538:	09 c0       	rjmp	.+18     	; 0x354c <__floatsisf+0x12>

0000353a <__floatsisf>:
    353a:	97 fb       	bst	r25, 7
    353c:	3e f4       	brtc	.+14     	; 0x354c <__floatsisf+0x12>
    353e:	90 95       	com	r25
    3540:	80 95       	com	r24
    3542:	70 95       	com	r23
    3544:	61 95       	neg	r22
    3546:	7f 4f       	sbci	r23, 0xFF	; 255
    3548:	8f 4f       	sbci	r24, 0xFF	; 255
    354a:	9f 4f       	sbci	r25, 0xFF	; 255
    354c:	99 23       	and	r25, r25
    354e:	a9 f0       	breq	.+42     	; 0x357a <__floatsisf+0x40>
    3550:	f9 2f       	mov	r31, r25
    3552:	96 e9       	ldi	r25, 0x96	; 150
    3554:	bb 27       	eor	r27, r27
    3556:	93 95       	inc	r25
    3558:	f6 95       	lsr	r31
    355a:	87 95       	ror	r24
    355c:	77 95       	ror	r23
    355e:	67 95       	ror	r22
    3560:	b7 95       	ror	r27
    3562:	f1 11       	cpse	r31, r1
    3564:	f8 cf       	rjmp	.-16     	; 0x3556 <__floatsisf+0x1c>
    3566:	fa f4       	brpl	.+62     	; 0x35a6 <__floatsisf+0x6c>
    3568:	bb 0f       	add	r27, r27
    356a:	11 f4       	brne	.+4      	; 0x3570 <__floatsisf+0x36>
    356c:	60 ff       	sbrs	r22, 0
    356e:	1b c0       	rjmp	.+54     	; 0x35a6 <__floatsisf+0x6c>
    3570:	6f 5f       	subi	r22, 0xFF	; 255
    3572:	7f 4f       	sbci	r23, 0xFF	; 255
    3574:	8f 4f       	sbci	r24, 0xFF	; 255
    3576:	9f 4f       	sbci	r25, 0xFF	; 255
    3578:	16 c0       	rjmp	.+44     	; 0x35a6 <__floatsisf+0x6c>
    357a:	88 23       	and	r24, r24
    357c:	11 f0       	breq	.+4      	; 0x3582 <__floatsisf+0x48>
    357e:	96 e9       	ldi	r25, 0x96	; 150
    3580:	11 c0       	rjmp	.+34     	; 0x35a4 <__floatsisf+0x6a>
    3582:	77 23       	and	r23, r23
    3584:	21 f0       	breq	.+8      	; 0x358e <__floatsisf+0x54>
    3586:	9e e8       	ldi	r25, 0x8E	; 142
    3588:	87 2f       	mov	r24, r23
    358a:	76 2f       	mov	r23, r22
    358c:	05 c0       	rjmp	.+10     	; 0x3598 <__floatsisf+0x5e>
    358e:	66 23       	and	r22, r22
    3590:	71 f0       	breq	.+28     	; 0x35ae <__floatsisf+0x74>
    3592:	96 e8       	ldi	r25, 0x86	; 134
    3594:	86 2f       	mov	r24, r22
    3596:	70 e0       	ldi	r23, 0x00	; 0
    3598:	60 e0       	ldi	r22, 0x00	; 0
    359a:	2a f0       	brmi	.+10     	; 0x35a6 <__floatsisf+0x6c>
    359c:	9a 95       	dec	r25
    359e:	66 0f       	add	r22, r22
    35a0:	77 1f       	adc	r23, r23
    35a2:	88 1f       	adc	r24, r24
    35a4:	da f7       	brpl	.-10     	; 0x359c <__floatsisf+0x62>
    35a6:	88 0f       	add	r24, r24
    35a8:	96 95       	lsr	r25
    35aa:	87 95       	ror	r24
    35ac:	97 f9       	bld	r25, 7
    35ae:	08 95       	ret

000035b0 <__fp_inf>:
    35b0:	97 f9       	bld	r25, 7
    35b2:	9f 67       	ori	r25, 0x7F	; 127
    35b4:	80 e8       	ldi	r24, 0x80	; 128
    35b6:	70 e0       	ldi	r23, 0x00	; 0
    35b8:	60 e0       	ldi	r22, 0x00	; 0
    35ba:	08 95       	ret

000035bc <__fp_nan>:
    35bc:	9f ef       	ldi	r25, 0xFF	; 255
    35be:	80 ec       	ldi	r24, 0xC0	; 192
    35c0:	08 95       	ret

000035c2 <__fp_pscA>:
    35c2:	00 24       	eor	r0, r0
    35c4:	0a 94       	dec	r0
    35c6:	16 16       	cp	r1, r22
    35c8:	17 06       	cpc	r1, r23
    35ca:	18 06       	cpc	r1, r24
    35cc:	09 06       	cpc	r0, r25
    35ce:	08 95       	ret

000035d0 <__fp_pscB>:
    35d0:	00 24       	eor	r0, r0
    35d2:	0a 94       	dec	r0
    35d4:	12 16       	cp	r1, r18
    35d6:	13 06       	cpc	r1, r19
    35d8:	14 06       	cpc	r1, r20
    35da:	05 06       	cpc	r0, r21
    35dc:	08 95       	ret

000035de <__fp_round>:
    35de:	09 2e       	mov	r0, r25
    35e0:	03 94       	inc	r0
    35e2:	00 0c       	add	r0, r0
    35e4:	11 f4       	brne	.+4      	; 0x35ea <__fp_round+0xc>
    35e6:	88 23       	and	r24, r24
    35e8:	52 f0       	brmi	.+20     	; 0x35fe <__fp_round+0x20>
    35ea:	bb 0f       	add	r27, r27
    35ec:	40 f4       	brcc	.+16     	; 0x35fe <__fp_round+0x20>
    35ee:	bf 2b       	or	r27, r31
    35f0:	11 f4       	brne	.+4      	; 0x35f6 <__fp_round+0x18>
    35f2:	60 ff       	sbrs	r22, 0
    35f4:	04 c0       	rjmp	.+8      	; 0x35fe <__fp_round+0x20>
    35f6:	6f 5f       	subi	r22, 0xFF	; 255
    35f8:	7f 4f       	sbci	r23, 0xFF	; 255
    35fa:	8f 4f       	sbci	r24, 0xFF	; 255
    35fc:	9f 4f       	sbci	r25, 0xFF	; 255
    35fe:	08 95       	ret

00003600 <__fp_split3>:
    3600:	57 fd       	sbrc	r21, 7
    3602:	90 58       	subi	r25, 0x80	; 128
    3604:	44 0f       	add	r20, r20
    3606:	55 1f       	adc	r21, r21
    3608:	59 f0       	breq	.+22     	; 0x3620 <__fp_splitA+0x10>
    360a:	5f 3f       	cpi	r21, 0xFF	; 255
    360c:	71 f0       	breq	.+28     	; 0x362a <__fp_splitA+0x1a>
    360e:	47 95       	ror	r20

00003610 <__fp_splitA>:
    3610:	88 0f       	add	r24, r24
    3612:	97 fb       	bst	r25, 7
    3614:	99 1f       	adc	r25, r25
    3616:	61 f0       	breq	.+24     	; 0x3630 <__fp_splitA+0x20>
    3618:	9f 3f       	cpi	r25, 0xFF	; 255
    361a:	79 f0       	breq	.+30     	; 0x363a <__fp_splitA+0x2a>
    361c:	87 95       	ror	r24
    361e:	08 95       	ret
    3620:	12 16       	cp	r1, r18
    3622:	13 06       	cpc	r1, r19
    3624:	14 06       	cpc	r1, r20
    3626:	55 1f       	adc	r21, r21
    3628:	f2 cf       	rjmp	.-28     	; 0x360e <__fp_split3+0xe>
    362a:	46 95       	lsr	r20
    362c:	f1 df       	rcall	.-30     	; 0x3610 <__fp_splitA>
    362e:	08 c0       	rjmp	.+16     	; 0x3640 <__fp_splitA+0x30>
    3630:	16 16       	cp	r1, r22
    3632:	17 06       	cpc	r1, r23
    3634:	18 06       	cpc	r1, r24
    3636:	99 1f       	adc	r25, r25
    3638:	f1 cf       	rjmp	.-30     	; 0x361c <__fp_splitA+0xc>
    363a:	86 95       	lsr	r24
    363c:	71 05       	cpc	r23, r1
    363e:	61 05       	cpc	r22, r1
    3640:	08 94       	sec
    3642:	08 95       	ret

00003644 <__fp_zero>:
    3644:	e8 94       	clt

00003646 <__fp_szero>:
    3646:	bb 27       	eor	r27, r27
    3648:	66 27       	eor	r22, r22
    364a:	77 27       	eor	r23, r23
    364c:	cb 01       	movw	r24, r22
    364e:	97 f9       	bld	r25, 7
    3650:	08 95       	ret

00003652 <__mulsf3>:
    3652:	0b d0       	rcall	.+22     	; 0x366a <__mulsf3x>
    3654:	c4 cf       	rjmp	.-120    	; 0x35de <__fp_round>
    3656:	b5 df       	rcall	.-150    	; 0x35c2 <__fp_pscA>
    3658:	28 f0       	brcs	.+10     	; 0x3664 <__mulsf3+0x12>
    365a:	ba df       	rcall	.-140    	; 0x35d0 <__fp_pscB>
    365c:	18 f0       	brcs	.+6      	; 0x3664 <__mulsf3+0x12>
    365e:	95 23       	and	r25, r21
    3660:	09 f0       	breq	.+2      	; 0x3664 <__mulsf3+0x12>
    3662:	a6 cf       	rjmp	.-180    	; 0x35b0 <__fp_inf>
    3664:	ab cf       	rjmp	.-170    	; 0x35bc <__fp_nan>
    3666:	11 24       	eor	r1, r1
    3668:	ee cf       	rjmp	.-36     	; 0x3646 <__fp_szero>

0000366a <__mulsf3x>:
    366a:	ca df       	rcall	.-108    	; 0x3600 <__fp_split3>
    366c:	a0 f3       	brcs	.-24     	; 0x3656 <__mulsf3+0x4>

0000366e <__mulsf3_pse>:
    366e:	95 9f       	mul	r25, r21
    3670:	d1 f3       	breq	.-12     	; 0x3666 <__mulsf3+0x14>
    3672:	95 0f       	add	r25, r21
    3674:	50 e0       	ldi	r21, 0x00	; 0
    3676:	55 1f       	adc	r21, r21
    3678:	62 9f       	mul	r22, r18
    367a:	f0 01       	movw	r30, r0
    367c:	72 9f       	mul	r23, r18
    367e:	bb 27       	eor	r27, r27
    3680:	f0 0d       	add	r31, r0
    3682:	b1 1d       	adc	r27, r1
    3684:	63 9f       	mul	r22, r19
    3686:	aa 27       	eor	r26, r26
    3688:	f0 0d       	add	r31, r0
    368a:	b1 1d       	adc	r27, r1
    368c:	aa 1f       	adc	r26, r26
    368e:	64 9f       	mul	r22, r20
    3690:	66 27       	eor	r22, r22
    3692:	b0 0d       	add	r27, r0
    3694:	a1 1d       	adc	r26, r1
    3696:	66 1f       	adc	r22, r22
    3698:	82 9f       	mul	r24, r18
    369a:	22 27       	eor	r18, r18
    369c:	b0 0d       	add	r27, r0
    369e:	a1 1d       	adc	r26, r1
    36a0:	62 1f       	adc	r22, r18
    36a2:	73 9f       	mul	r23, r19
    36a4:	b0 0d       	add	r27, r0
    36a6:	a1 1d       	adc	r26, r1
    36a8:	62 1f       	adc	r22, r18
    36aa:	83 9f       	mul	r24, r19
    36ac:	a0 0d       	add	r26, r0
    36ae:	61 1d       	adc	r22, r1
    36b0:	22 1f       	adc	r18, r18
    36b2:	74 9f       	mul	r23, r20
    36b4:	33 27       	eor	r19, r19
    36b6:	a0 0d       	add	r26, r0
    36b8:	61 1d       	adc	r22, r1
    36ba:	23 1f       	adc	r18, r19
    36bc:	84 9f       	mul	r24, r20
    36be:	60 0d       	add	r22, r0
    36c0:	21 1d       	adc	r18, r1
    36c2:	82 2f       	mov	r24, r18
    36c4:	76 2f       	mov	r23, r22
    36c6:	6a 2f       	mov	r22, r26
    36c8:	11 24       	eor	r1, r1
    36ca:	9f 57       	subi	r25, 0x7F	; 127
    36cc:	50 40       	sbci	r21, 0x00	; 0
    36ce:	8a f0       	brmi	.+34     	; 0x36f2 <__mulsf3_pse+0x84>
    36d0:	e1 f0       	breq	.+56     	; 0x370a <__mulsf3_pse+0x9c>
    36d2:	88 23       	and	r24, r24
    36d4:	4a f0       	brmi	.+18     	; 0x36e8 <__mulsf3_pse+0x7a>
    36d6:	ee 0f       	add	r30, r30
    36d8:	ff 1f       	adc	r31, r31
    36da:	bb 1f       	adc	r27, r27
    36dc:	66 1f       	adc	r22, r22
    36de:	77 1f       	adc	r23, r23
    36e0:	88 1f       	adc	r24, r24
    36e2:	91 50       	subi	r25, 0x01	; 1
    36e4:	50 40       	sbci	r21, 0x00	; 0
    36e6:	a9 f7       	brne	.-22     	; 0x36d2 <__mulsf3_pse+0x64>
    36e8:	9e 3f       	cpi	r25, 0xFE	; 254
    36ea:	51 05       	cpc	r21, r1
    36ec:	70 f0       	brcs	.+28     	; 0x370a <__mulsf3_pse+0x9c>
    36ee:	60 cf       	rjmp	.-320    	; 0x35b0 <__fp_inf>
    36f0:	aa cf       	rjmp	.-172    	; 0x3646 <__fp_szero>
    36f2:	5f 3f       	cpi	r21, 0xFF	; 255
    36f4:	ec f3       	brlt	.-6      	; 0x36f0 <__mulsf3_pse+0x82>
    36f6:	98 3e       	cpi	r25, 0xE8	; 232
    36f8:	dc f3       	brlt	.-10     	; 0x36f0 <__mulsf3_pse+0x82>
    36fa:	86 95       	lsr	r24
    36fc:	77 95       	ror	r23
    36fe:	67 95       	ror	r22
    3700:	b7 95       	ror	r27
    3702:	f7 95       	ror	r31
    3704:	e7 95       	ror	r30
    3706:	9f 5f       	subi	r25, 0xFF	; 255
    3708:	c1 f7       	brne	.-16     	; 0x36fa <__mulsf3_pse+0x8c>
    370a:	fe 2b       	or	r31, r30
    370c:	88 0f       	add	r24, r24
    370e:	91 1d       	adc	r25, r1
    3710:	96 95       	lsr	r25
    3712:	87 95       	ror	r24
    3714:	97 f9       	bld	r25, 7
    3716:	08 95       	ret

00003718 <_exit>:
    3718:	f8 94       	cli

0000371a <__stop_program>:
    371a:	ff cf       	rjmp	.-2      	; 0x371a <__stop_program>
